
EVK527-series4-hidio.elf:     file format elf32-avr

Sections:
Idx Name          Size      VMA       LMA       File off  Algn
  0 .data         00000004  00800100  000011dc  00001270  2**0
                  CONTENTS, ALLOC, LOAD, DATA
  1 .text         000011dc  00000000  00000000  00000094  2**1
                  CONTENTS, ALLOC, LOAD, READONLY, CODE
  2 .bss          0000009f  00800104  00800104  00001274  2**0
                  ALLOC
  3 .noinit       00000004  008001a3  008001a3  00001274  2**0
                  ALLOC
  4 .stab         000006cc  00000000  00000000  00001274  2**2
                  CONTENTS, READONLY, DEBUGGING
  5 .stabstr      00000090  00000000  00000000  00001940  2**0
                  CONTENTS, READONLY, DEBUGGING
  6 .debug_aranges 00000168  00000000  00000000  000019d0  2**3
                  CONTENTS, READONLY, DEBUGGING
  7 .debug_pubnames 0000078e  00000000  00000000  00001b38  2**0
                  CONTENTS, READONLY, DEBUGGING
  8 .debug_info   000025e4  00000000  00000000  000022c6  2**0
                  CONTENTS, READONLY, DEBUGGING
  9 .debug_abbrev 00000a8b  00000000  00000000  000048aa  2**0
                  CONTENTS, READONLY, DEBUGGING
 10 .debug_line   00002030  00000000  00000000  00005335  2**0
                  CONTENTS, READONLY, DEBUGGING
 11 .debug_frame  00000410  00000000  00000000  00007368  2**2
                  CONTENTS, READONLY, DEBUGGING
 12 .debug_str    00000e3b  00000000  00000000  00007778  2**0
                  CONTENTS, READONLY, DEBUGGING
 13 .debug_loc    000007a1  00000000  00000000  000085b3  2**0
                  CONTENTS, READONLY, DEBUGGING
 14 .debug_pubtypes 00000542  00000000  00000000  00008d54  2**0
                  CONTENTS, READONLY, DEBUGGING
 15 .debug_ranges 00000048  00000000  00000000  00009296  2**0
                  CONTENTS, READONLY, DEBUGGING

Disassembly of section .text:

00000000 <__vectors>:
       0:	0c 94 a7 00 	jmp	0x14e	; 0x14e <__ctors_end>
       4:	0c 94 cf 00 	jmp	0x19e	; 0x19e <__bad_interrupt>
       8:	0c 94 cf 00 	jmp	0x19e	; 0x19e <__bad_interrupt>
       c:	0c 94 cf 00 	jmp	0x19e	; 0x19e <__bad_interrupt>
      10:	0c 94 cf 00 	jmp	0x19e	; 0x19e <__bad_interrupt>
      14:	0c 94 cf 00 	jmp	0x19e	; 0x19e <__bad_interrupt>
      18:	0c 94 cf 00 	jmp	0x19e	; 0x19e <__bad_interrupt>
      1c:	0c 94 cf 00 	jmp	0x19e	; 0x19e <__bad_interrupt>
      20:	0c 94 cf 00 	jmp	0x19e	; 0x19e <__bad_interrupt>
      24:	0c 94 cf 00 	jmp	0x19e	; 0x19e <__bad_interrupt>
      28:	0c 94 38 03 	jmp	0x670	; 0x670 <__vector_10>
      2c:	0c 94 cf 00 	jmp	0x19e	; 0x19e <__bad_interrupt>
      30:	0c 94 cf 00 	jmp	0x19e	; 0x19e <__bad_interrupt>
      34:	0c 94 cf 00 	jmp	0x19e	; 0x19e <__bad_interrupt>
      38:	0c 94 cf 00 	jmp	0x19e	; 0x19e <__bad_interrupt>
      3c:	0c 94 cf 00 	jmp	0x19e	; 0x19e <__bad_interrupt>
      40:	0c 94 cf 00 	jmp	0x19e	; 0x19e <__bad_interrupt>
      44:	0c 94 cf 00 	jmp	0x19e	; 0x19e <__bad_interrupt>
      48:	0c 94 cf 00 	jmp	0x19e	; 0x19e <__bad_interrupt>
      4c:	0c 94 cf 00 	jmp	0x19e	; 0x19e <__bad_interrupt>
      50:	0c 94 cf 00 	jmp	0x19e	; 0x19e <__bad_interrupt>
      54:	0c 94 cf 00 	jmp	0x19e	; 0x19e <__bad_interrupt>
      58:	0c 94 cf 00 	jmp	0x19e	; 0x19e <__bad_interrupt>
      5c:	0c 94 cf 00 	jmp	0x19e	; 0x19e <__bad_interrupt>
      60:	0c 94 cf 00 	jmp	0x19e	; 0x19e <__bad_interrupt>
      64:	0c 94 cf 00 	jmp	0x19e	; 0x19e <__bad_interrupt>
      68:	0c 94 cf 00 	jmp	0x19e	; 0x19e <__bad_interrupt>
      6c:	0c 94 cf 00 	jmp	0x19e	; 0x19e <__bad_interrupt>
      70:	0c 94 cf 00 	jmp	0x19e	; 0x19e <__bad_interrupt>
      74:	0c 94 cf 00 	jmp	0x19e	; 0x19e <__bad_interrupt>
      78:	0c 94 cf 00 	jmp	0x19e	; 0x19e <__bad_interrupt>
      7c:	0c 94 cf 00 	jmp	0x19e	; 0x19e <__bad_interrupt>
      80:	0c 94 cf 00 	jmp	0x19e	; 0x19e <__bad_interrupt>
      84:	0c 94 cf 00 	jmp	0x19e	; 0x19e <__bad_interrupt>
      88:	0c 94 cf 00 	jmp	0x19e	; 0x19e <__bad_interrupt>
      8c:	0c 94 cf 00 	jmp	0x19e	; 0x19e <__bad_interrupt>
      90:	0c 94 cf 00 	jmp	0x19e	; 0x19e <__bad_interrupt>
      94:	0c 94 cf 00 	jmp	0x19e	; 0x19e <__bad_interrupt>
      98:	0c 94 cf 00 	jmp	0x19e	; 0x19e <__bad_interrupt>
      9c:	0c 94 cf 00 	jmp	0x19e	; 0x19e <__bad_interrupt>
      a0:	0c 94 cf 00 	jmp	0x19e	; 0x19e <__bad_interrupt>
      a4:	0c 94 cf 00 	jmp	0x19e	; 0x19e <__bad_interrupt>
      a8:	0c 94 cf 00 	jmp	0x19e	; 0x19e <__bad_interrupt>

000000ac <usb_dev_desc>:
      ac:	12 01 00 02 00 00 00 20 eb 03 16 20 00 10 01 02     ....... ... ....
      bc:	00 01                                               ..

000000be <usb_conf_desc>:
      be:	09 02 29 00 01 01 00 80 dc 09 04 00 00 02 03 00     ..).............
      ce:	00 00 09 21 11 01 00 01 22 35 00 07 05 81 03 40     ...!...."5.....@
      de:	00 01 07 05 02 03 40 00 01                          ......@..

000000e7 <usb_user_manufacturer_string_descriptor>:
      e7:	0c 03 4d 00 4d 00 53 00 59 00 53 00                 ..M.M.S.Y.S.

000000f3 <usb_user_product_string_descriptor>:
      f3:	22 03 4d 00 4d 00 20 00 53 00 59 00 53 00 54 00     ".M.M. .S.Y.S.T.
     103:	45 00 4d 00 53 00 20 00 50 00 52 00 4f 00 47 00     E.M.S. .P.R.O.G.
     113:	20 00                                                .

00000115 <usb_user_language_id>:
     115:	04 03 09 04                                         ....

00000119 <usb_hid_report_descriptor>:
     119:	06 ff ff 09 01 a1 01 09 02 09 03 15 00 26 ff 00     .............&..
     129:	75 08 95 40 81 02 09 04 09 05 15 00 26 ff 00 75     u..@........&..u
     139:	08 95 40 91 02 09 06 09 07 15 00 26 ff 00 75 08     ..@........&..u.
     149:	95 04 b1 02 c0                                      .....

0000014e <__ctors_end>:
     14e:	11 24       	eor	r1, r1
     150:	1f be       	out	0x3f, r1	; 63
     152:	cf ef       	ldi	r28, 0xFF	; 255
     154:	da e0       	ldi	r29, 0x0A	; 10
     156:	de bf       	out	0x3e, r29	; 62
     158:	cd bf       	out	0x3d, r28	; 61

0000015a <__low_level_init>:

#ifdef __cplusplus
extern "C" {
#endif
char __low_level_init()
{
     15a:	80 e0       	ldi	r24, 0x00	; 0
     15c:	90 e0       	ldi	r25, 0x00	; 0
     15e:	20 e8       	ldi	r18, 0x80	; 128
     160:	0f b6       	in	r0, 0x3f	; 63
     162:	f8 94       	cli
     164:	20 93 61 00 	sts	0x0061, r18
     168:	80 93 61 00 	sts	0x0061, r24
     16c:	0f be       	out	0x3f, r0	; 63
  Clear_prescaler();
  return 1;
}
     16e:	81 e0       	ldi	r24, 0x01	; 1

00000170 <__do_copy_data>:
     170:	11 e0       	ldi	r17, 0x01	; 1
     172:	a0 e0       	ldi	r26, 0x00	; 0
     174:	b1 e0       	ldi	r27, 0x01	; 1
     176:	ec ed       	ldi	r30, 0xDC	; 220
     178:	f1 e1       	ldi	r31, 0x11	; 17
     17a:	02 c0       	rjmp	.+4      	; 0x180 <__do_copy_data+0x10>
     17c:	05 90       	lpm	r0, Z+
     17e:	0d 92       	st	X+, r0
     180:	a4 30       	cpi	r26, 0x04	; 4
     182:	b1 07       	cpc	r27, r17
     184:	d9 f7       	brne	.-10     	; 0x17c <__do_copy_data+0xc>

00000186 <__do_clear_bss>:
     186:	11 e0       	ldi	r17, 0x01	; 1
     188:	a4 e0       	ldi	r26, 0x04	; 4
     18a:	b1 e0       	ldi	r27, 0x01	; 1
     18c:	01 c0       	rjmp	.+2      	; 0x190 <.do_clear_bss_start>

0000018e <.do_clear_bss_loop>:
     18e:	1d 92       	st	X+, r1

00000190 <.do_clear_bss_start>:
     190:	a3 3a       	cpi	r26, 0xA3	; 163
     192:	b1 07       	cpc	r27, r17
     194:	e1 f7       	brne	.-8      	; 0x18e <.do_clear_bss_loop>
     196:	0e 94 d1 00 	call	0x1a2	; 0x1a2 <main>
     19a:	0c 94 ec 08 	jmp	0x11d8	; 0x11d8 <_exit>

0000019e <__bad_interrupt>:
     19e:	0c 94 00 00 	jmp	0	; 0x0 <__vectors>

000001a2 <main>:

//_____ D E F I N I T I O N S ______________________________________________

int main(void)
{	
   Usb_enable_regulator();
     1a2:	e7 ed       	ldi	r30, 0xD7	; 215
     1a4:	f0 e0       	ldi	r31, 0x00	; 0
     1a6:	80 81       	ld	r24, Z
     1a8:	81 60       	ori	r24, 0x01	; 1
     1aa:	80 83       	st	Z, r24
  // wdtdrv_disable();
   start_boot_if_required();
     1ac:	0e 94 32 04 	call	0x864	; 0x864 <start_boot_if_required>
The type of x is clock_div_t.
*/
void clock_prescale_set(clock_div_t __x)
{
    uint8_t __tmp = _BV(CLKPCE);
    __asm__ __volatile__ (
     1b0:	80 e0       	ldi	r24, 0x00	; 0
     1b2:	90 e0       	ldi	r25, 0x00	; 0
     1b4:	20 e8       	ldi	r18, 0x80	; 128
     1b6:	0f b6       	in	r0, 0x3f	; 63
     1b8:	f8 94       	cli
     1ba:	20 93 61 00 	sts	0x0061, r18
     1be:	80 93 61 00 	sts	0x0061, r24
     1c2:	0f be       	out	0x3f, r0	; 63
   Clear_prescaler();
   scheduler();
     1c4:	0e 94 1f 04 	call	0x83e	; 0x83e <scheduler>
   return 0;
}
     1c8:	80 e0       	ldi	r24, 0x00	; 0
     1ca:	90 e0       	ldi	r25, 0x00	; 0
     1cc:	08 95       	ret

000001ce <usb_process_request>:
//! @brief This function reads the SETUP request sent to the default control endpoint
//! and calls the appropriate function. When exiting of the usb_read_request
//! function, the device is ready to manage the next request.
//!
void usb_process_request(void)
{
     1ce:	0f 93       	push	r16
     1d0:	1f 93       	push	r17
     1d2:	df 93       	push	r29
     1d4:	cf 93       	push	r28
     1d6:	00 d0       	rcall	.+0      	; 0x1d8 <usb_process_request+0xa>
     1d8:	cd b7       	in	r28, 0x3d	; 61
     1da:	de b7       	in	r29, 0x3e	; 62
   U8 bmRequestType;
   U8 bmRequest;

   Usb_ack_control_out();
     1dc:	80 91 e8 00 	lds	r24, 0x00E8
     1e0:	8b 7f       	andi	r24, 0xFB	; 251
     1e2:	80 93 e8 00 	sts	0x00E8, r24
   bmRequestType = Usb_read_byte();
     1e6:	10 91 f1 00 	lds	r17, 0x00F1
   bmRequest     = Usb_read_byte();
     1ea:	00 91 f1 00 	lds	r16, 0x00F1

   switch (bmRequest)
     1ee:	06 30       	cpi	r16, 0x06	; 6
     1f0:	f9 f0       	breq	.+62     	; 0x230 <usb_process_request+0x62>
     1f2:	07 30       	cpi	r16, 0x07	; 7
     1f4:	68 f4       	brcc	.+26     	; 0x210 <usb_process_request+0x42>
     1f6:	01 30       	cpi	r16, 0x01	; 1
     1f8:	09 f4       	brne	.+2      	; 0x1fc <usb_process_request+0x2e>
     1fa:	09 c1       	rjmp	.+530    	; 0x40e <usb_process_request+0x240>
     1fc:	01 30       	cpi	r16, 0x01	; 1
     1fe:	08 f4       	brcc	.+2      	; 0x202 <usb_process_request+0x34>
     200:	73 c1       	rjmp	.+742    	; 0x4e8 <usb_process_request+0x31a>
     202:	03 30       	cpi	r16, 0x03	; 3
     204:	09 f4       	brne	.+2      	; 0x208 <usb_process_request+0x3a>
     206:	37 c1       	rjmp	.+622    	; 0x476 <usb_process_request+0x2a8>
     208:	05 30       	cpi	r16, 0x05	; 5
     20a:	09 f0       	breq	.+2      	; 0x20e <usb_process_request+0x40>
     20c:	e9 c1       	rjmp	.+978    	; 0x5e0 <usb_process_request+0x412>
     20e:	c8 c0       	rjmp	.+400    	; 0x3a0 <usb_process_request+0x1d2>
     210:	09 30       	cpi	r16, 0x09	; 9
     212:	09 f4       	brne	.+2      	; 0x216 <usb_process_request+0x48>
     214:	e5 c0       	rjmp	.+458    	; 0x3e0 <usb_process_request+0x212>
     216:	0a 30       	cpi	r16, 0x0A	; 10
     218:	20 f4       	brcc	.+8      	; 0x222 <usb_process_request+0x54>
     21a:	08 30       	cpi	r16, 0x08	; 8
     21c:	09 f0       	breq	.+2      	; 0x220 <usb_process_request+0x52>
     21e:	e0 c1       	rjmp	.+960    	; 0x5e0 <usb_process_request+0x412>
     220:	9a c0       	rjmp	.+308    	; 0x356 <usb_process_request+0x188>
     222:	0a 30       	cpi	r16, 0x0A	; 10
     224:	09 f4       	brne	.+2      	; 0x228 <usb_process_request+0x5a>
     226:	95 c1       	rjmp	.+810    	; 0x552 <usb_process_request+0x384>
     228:	0b 30       	cpi	r16, 0x0B	; 11
     22a:	09 f0       	breq	.+2      	; 0x22e <usb_process_request+0x60>
     22c:	d9 c1       	rjmp	.+946    	; 0x5e0 <usb_process_request+0x412>
     22e:	b5 c1       	rjmp	.+874    	; 0x59a <usb_process_request+0x3cc>
   {
      case SETUP_GET_DESCRIPTOR:
      if (USB_SETUP_GET_STAND_DEVICE == bmRequestType)
     230:	10 38       	cpi	r17, 0x80	; 128
     232:	09 f0       	breq	.+2      	; 0x236 <usb_process_request+0x68>
     234:	d5 c1       	rjmp	.+938    	; 0x5e0 <usb_process_request+0x412>
   U16  sn_index=0;
   U8   initial_data_to_transfer;
#endif
    
   zlp             = FALSE;                  /* no zero length packet */
   string_type     = Usb_read_byte();        /* read LSB of wValue    */
     236:	60 91 f1 00 	lds	r22, 0x00F1
   descriptor_type = Usb_read_byte();        /* read MSB of wValue    */
     23a:	80 91 f1 00 	lds	r24, 0x00F1

   switch (descriptor_type)
     23e:	81 30       	cpi	r24, 0x01	; 1
     240:	19 f0       	breq	.+6      	; 0x248 <usb_process_request+0x7a>
     242:	82 30       	cpi	r24, 0x02	; 2
     244:	89 f4       	brne	.+34     	; 0x268 <usb_process_request+0x9a>
     246:	06 c0       	rjmp	.+12     	; 0x254 <usb_process_request+0x86>
   {
      case DESCRIPTOR_DEVICE:
      data_to_transfer = Usb_get_dev_desc_length(); //!< sizeof (usb_user_device_descriptor);
     248:	82 e1       	ldi	r24, 0x12	; 18
     24a:	80 93 1a 01 	sts	0x011A, r24
      pbuffer          = Usb_get_dev_desc_pointer();
     24e:	8c ea       	ldi	r24, 0xAC	; 172
     250:	90 e0       	ldi	r25, 0x00	; 0
     252:	05 c0       	rjmp	.+10     	; 0x25e <usb_process_request+0x90>
      break;
      
      case DESCRIPTOR_CONFIGURATION:
      data_to_transfer = Usb_get_conf_desc_length(); //!< sizeof (usb_user_configuration_descriptor);
     254:	89 e2       	ldi	r24, 0x29	; 41
     256:	80 93 1a 01 	sts	0x011A, r24
      pbuffer          = Usb_get_conf_desc_pointer();
     25a:	8e eb       	ldi	r24, 0xBE	; 190
     25c:	90 e0       	ldi	r25, 0x00	; 0
     25e:	90 93 1c 01 	sts	0x011C, r25
     262:	80 93 1b 01 	sts	0x011B, r24
     266:	05 c0       	rjmp	.+10     	; 0x272 <usb_process_request+0xa4>
      break;
      
      default:
      if( !usb_user_get_descriptor(descriptor_type, string_type))
     268:	0e 94 86 05 	call	0xb0c	; 0xb0c <usb_user_get_descriptor>
     26c:	88 23       	and	r24, r24
     26e:	09 f4       	brne	.+2      	; 0x272 <usb_process_request+0xa4>
     270:	b7 c1       	rjmp	.+878    	; 0x5e0 <usb_process_request+0x412>
         return FALSE;  // Unknow descriptor then stall request
      break;
   }

   dummy = Usb_read_byte();                     //!< don't care of wIndex field
     272:	80 91 f1 00 	lds	r24, 0x00F1
   dummy = Usb_read_byte();
     276:	80 91 f1 00 	lds	r24, 0x00F1
   LSB(wLength) = Usb_read_byte();              //!< read wLength
     27a:	80 91 f1 00 	lds	r24, 0x00F1
     27e:	89 83       	std	Y+1, r24	; 0x01
   MSB(wLength) = Usb_read_byte();
     280:	80 91 f1 00 	lds	r24, 0x00F1
     284:	8a 83       	std	Y+2, r24	; 0x02
   Usb_ack_receive_setup() ;                  //!< clear the receive setup flag
     286:	80 91 e8 00 	lds	r24, 0x00E8
     28a:	87 7f       	andi	r24, 0xF7	; 247
     28c:	80 93 e8 00 	sts	0x00E8, r24

   if (wLength > data_to_transfer)
     290:	89 81       	ldd	r24, Y+1	; 0x01
     292:	9a 81       	ldd	r25, Y+2	; 0x02
     294:	40 91 1a 01 	lds	r20, 0x011A
     298:	24 2f       	mov	r18, r20
     29a:	30 e0       	ldi	r19, 0x00	; 0
     29c:	28 17       	cp	r18, r24
     29e:	39 07       	cpc	r19, r25
     2a0:	18 f4       	brcc	.+6      	; 0x2a8 <usb_process_request+0xda>
   {
      if ((data_to_transfer % EP_CONTROL_LENGTH) == 0) { zlp = TRUE; }
     2a2:	4f 71       	andi	r20, 0x1F	; 31
     2a4:	29 f0       	breq	.+10     	; 0x2b0 <usb_process_request+0xe2>
     2a6:	02 c0       	rjmp	.+4      	; 0x2ac <usb_process_request+0xde>
      else { zlp = FALSE; }                   //!< no need of zero length packet
   }
   else
   {
      data_to_transfer = (U8)wLength;         //!< send only requested number of data
     2a8:	80 93 1a 01 	sts	0x011A, r24
#if (USE_DEVICE_SN_UNIQUE==ENABLE)
   U16  sn_index=0;
   U8   initial_data_to_transfer;
#endif
    
   zlp             = FALSE;                  /* no zero length packet */
     2ac:	30 e0       	ldi	r19, 0x00	; 0
     2ae:	01 c0       	rjmp	.+2      	; 0x2b2 <usb_process_request+0xe4>
   MSB(wLength) = Usb_read_byte();
   Usb_ack_receive_setup() ;                  //!< clear the receive setup flag

   if (wLength > data_to_transfer)
   {
      if ((data_to_transfer % EP_CONTROL_LENGTH) == 0) { zlp = TRUE; }
     2b0:	31 e0       	ldi	r19, 0x01	; 1
   else
   {
      data_to_transfer = (U8)wLength;         //!< send only requested number of data
   }

   Usb_ack_nak_out();
     2b2:	80 91 e8 00 	lds	r24, 0x00E8
     2b6:	8f 7e       	andi	r24, 0xEF	; 239
     2b8:	28 c0       	rjmp	.+80     	; 0x30a <usb_process_request+0x13c>
#endif
   while((data_to_transfer != 0) && (!Is_usb_nak_out_sent()))
   {
      while(!Is_usb_read_control_enabled())
      {
         if (Is_usb_nak_out_sent())
     2ba:	80 91 e8 00 	lds	r24, 0x00E8
     2be:	84 fd       	sbrc	r24, 4
     2c0:	04 c0       	rjmp	.+8      	; 0x2ca <usb_process_request+0xfc>
#if (USE_DEVICE_SN_UNIQUE==ENABLE)
   initial_data_to_transfer = data_to_transfer;
#endif
   while((data_to_transfer != 0) && (!Is_usb_nak_out_sent()))
   {
      while(!Is_usb_read_control_enabled())
     2c2:	80 91 e8 00 	lds	r24, 0x00E8
     2c6:	80 ff       	sbrs	r24, 0
     2c8:	f8 cf       	rjmp	.-16     	; 0x2ba <usb_process_request+0xec>
      {
         if (Is_usb_nak_out_sent())
     2ca:	20 e0       	ldi	r18, 0x00	; 0
     2cc:	13 c0       	rjmp	.+38     	; 0x2f4 <usb_process_request+0x126>
      }
              
      nb_byte=0;
      while(data_to_transfer != 0)        //!< Send data until necessary
      {
         if(nb_byte++==EP_CONTROL_LENGTH) //!< Check endpoint 0 size
     2ce:	20 32       	cpi	r18, 0x20	; 32
     2d0:	a9 f0       	breq	.+42     	; 0x2fc <usb_process_request+0x12e>
     2d2:	2f 5f       	subi	r18, 0xFF	; 255
         else
         {
            Usb_write_PGM_byte(pbuffer++);                                                 //Write a flash byte to USB        
         }        
#else          
         Usb_write_PGM_byte(pbuffer++);          
     2d4:	e0 91 1b 01 	lds	r30, 0x011B
     2d8:	f0 91 1c 01 	lds	r31, 0x011C
     2dc:	cf 01       	movw	r24, r30
     2de:	01 96       	adiw	r24, 0x01	; 1
     2e0:	90 93 1c 01 	sts	0x011C, r25
     2e4:	80 93 1b 01 	sts	0x011B, r24
     2e8:	e4 91       	lpm	r30, Z+
     2ea:	e0 93 f1 00 	sts	0x00F1, r30
#endif
         data_to_transfer --;                                                             //decrements the number of bytes to transmit.
     2ee:	41 50       	subi	r20, 0x01	; 1
     2f0:	40 93 1a 01 	sts	0x011A, r20
         if (Is_usb_nak_out_sent())
            break;    // don't clear the flag now, it will be cleared after
      }
              
      nb_byte=0;
      while(data_to_transfer != 0)        //!< Send data until necessary
     2f4:	40 91 1a 01 	lds	r20, 0x011A
     2f8:	44 23       	and	r20, r20
     2fa:	49 f7       	brne	.-46     	; 0x2ce <usb_process_request+0x100>
         Usb_write_PGM_byte(pbuffer++);          
#endif
         data_to_transfer --;                                                             //decrements the number of bytes to transmit.
      }
      
      if (Is_usb_nak_out_sent())
     2fc:	80 91 e8 00 	lds	r24, 0x00E8
     300:	84 fd       	sbrc	r24, 4
     302:	0d c0       	rjmp	.+26     	; 0x31e <usb_process_request+0x150>
         break;
      else
         Usb_send_control_in();
     304:	80 91 e8 00 	lds	r24, 0x00E8
     308:	8e 7f       	andi	r24, 0xFE	; 254
     30a:	80 93 e8 00 	sts	0x00E8, r24
    
   byte_to_send=0;
#if (USE_DEVICE_SN_UNIQUE==ENABLE)
   initial_data_to_transfer = data_to_transfer;
#endif
   while((data_to_transfer != 0) && (!Is_usb_nak_out_sent()))
     30e:	80 91 1a 01 	lds	r24, 0x011A
     312:	88 23       	and	r24, r24
     314:	21 f0       	breq	.+8      	; 0x31e <usb_process_request+0x150>
     316:	80 91 e8 00 	lds	r24, 0x00E8
     31a:	84 ff       	sbrs	r24, 4
     31c:	d2 cf       	rjmp	.-92     	; 0x2c2 <usb_process_request+0xf4>
   
#if (USE_DEVICE_SN_UNIQUE==ENABLE)      
   f_get_serial_string=FALSE;                                                   //end of signature transmission    
#endif   

   if((zlp == TRUE) && (!Is_usb_nak_out_sent()))
     31e:	31 30       	cpi	r19, 0x01	; 1
     320:	69 f4       	brne	.+26     	; 0x33c <usb_process_request+0x16e>
     322:	80 91 e8 00 	lds	r24, 0x00E8
     326:	84 fd       	sbrc	r24, 4
     328:	09 c0       	rjmp	.+18     	; 0x33c <usb_process_request+0x16e>
   {
      while(!Is_usb_read_control_enabled());
     32a:	80 91 e8 00 	lds	r24, 0x00E8
     32e:	80 ff       	sbrs	r24, 0
     330:	fc cf       	rjmp	.-8      	; 0x32a <usb_process_request+0x15c>
      Usb_send_control_in();
     332:	80 91 e8 00 	lds	r24, 0x00E8
     336:	8e 7f       	andi	r24, 0xFE	; 254
     338:	80 93 e8 00 	sts	0x00E8, r24
   }

   while (!(Is_usb_nak_out_sent()));
     33c:	80 91 e8 00 	lds	r24, 0x00E8
     340:	84 ff       	sbrs	r24, 4
     342:	fc cf       	rjmp	.-8      	; 0x33c <usb_process_request+0x16e>
   Usb_ack_nak_out();
     344:	80 91 e8 00 	lds	r24, 0x00E8
     348:	8f 7e       	andi	r24, 0xEF	; 239
     34a:	80 93 e8 00 	sts	0x00E8, r24
   Usb_ack_control_out();
     34e:	80 91 e8 00 	lds	r24, 0x00E8
     352:	8b 7f       	andi	r24, 0xFB	; 251
     354:	22 c0       	rjmp	.+68     	; 0x39a <usb_process_request+0x1cc>
            return;
      }
      break;

      case SETUP_GET_CONFIGURATION:
      if (USB_SETUP_GET_STAND_DEVICE == bmRequestType)
     356:	10 38       	cpi	r17, 0x80	; 128
     358:	09 f0       	breq	.+2      	; 0x35c <usb_process_request+0x18e>
     35a:	42 c1       	rjmp	.+644    	; 0x5e0 <usb_process_request+0x412>
//! This function manages the GET CONFIGURATION request. The current
//! configuration number is returned.
//!
void usb_get_configuration(void)
{
   Usb_ack_receive_setup();
     35c:	80 91 e8 00 	lds	r24, 0x00E8
     360:	87 7f       	andi	r24, 0xF7	; 247
     362:	80 93 e8 00 	sts	0x00E8, r24

   Usb_write_byte(usb_configuration_nb);
     366:	80 91 19 01 	lds	r24, 0x0119
     36a:	80 93 f1 00 	sts	0x00F1, r24
   Usb_ack_in_ready();
     36e:	80 91 e8 00 	lds	r24, 0x00E8
     372:	8e 7f       	andi	r24, 0xFE	; 254
     374:	80 93 e8 00 	sts	0x00E8, r24
     378:	80 91 e8 00 	lds	r24, 0x00E8
     37c:	8f 77       	andi	r24, 0x7F	; 127
     37e:	80 93 e8 00 	sts	0x00E8, r24

   while( !Is_usb_receive_out() );
     382:	80 91 e8 00 	lds	r24, 0x00E8
     386:	82 ff       	sbrs	r24, 2
     388:	fc cf       	rjmp	.-8      	; 0x382 <usb_process_request+0x1b4>
   Usb_ack_receive_out();
     38a:	80 91 e8 00 	lds	r24, 0x00E8
     38e:	8b 7f       	andi	r24, 0xFB	; 251
     390:	80 93 e8 00 	sts	0x00E8, r24
     394:	80 91 e8 00 	lds	r24, 0x00E8
     398:	8f 77       	andi	r24, 0x7F	; 127
     39a:	80 93 e8 00 	sts	0x00E8, r24

      case SETUP_GET_CONFIGURATION:
      if (USB_SETUP_GET_STAND_DEVICE == bmRequestType)
      {
         usb_get_configuration();
         return;
     39e:	37 c1       	rjmp	.+622    	; 0x60e <usb_process_request+0x440>
      }
      break;

      case SETUP_SET_ADDRESS:
      if (USB_SETUP_SET_STAND_DEVICE == bmRequestType)
     3a0:	11 23       	and	r17, r17
     3a2:	09 f0       	breq	.+2      	; 0x3a6 <usb_process_request+0x1d8>
     3a4:	1d c1       	rjmp	.+570    	; 0x5e0 <usb_process_request+0x412>
//! This function manages the SET ADDRESS request. When complete, the device
//! will filter the requests using the new address.
//!
void usb_set_address(void)
{
   U8 addr = Usb_read_byte();
     3a6:	80 91 f1 00 	lds	r24, 0x00F1
   Usb_configure_address(addr);
     3aa:	90 91 e3 00 	lds	r25, 0x00E3
     3ae:	8f 77       	andi	r24, 0x7F	; 127
     3b0:	90 78       	andi	r25, 0x80	; 128
     3b2:	89 2b       	or	r24, r25
     3b4:	80 93 e3 00 	sts	0x00E3, r24

   Usb_ack_receive_setup();
     3b8:	80 91 e8 00 	lds	r24, 0x00E8
     3bc:	87 7f       	andi	r24, 0xF7	; 247
     3be:	80 93 e8 00 	sts	0x00E8, r24

   Usb_send_control_in();                    // send a ZLP for STATUS phase
     3c2:	80 91 e8 00 	lds	r24, 0x00E8
     3c6:	8e 7f       	andi	r24, 0xFE	; 254
     3c8:	80 93 e8 00 	sts	0x00E8, r24
   while(!Is_usb_in_ready());                // waits for status phase done
     3cc:	80 91 e8 00 	lds	r24, 0x00E8
     3d0:	80 ff       	sbrs	r24, 0
     3d2:	fc cf       	rjmp	.-8      	; 0x3cc <usb_process_request+0x1fe>
                                             // before using the new address
   Usb_enable_address();
     3d4:	80 91 e3 00 	lds	r24, 0x00E3
     3d8:	80 68       	ori	r24, 0x80	; 128
     3da:	80 93 e3 00 	sts	0x00E3, r24

      case SETUP_SET_ADDRESS:
      if (USB_SETUP_SET_STAND_DEVICE == bmRequestType)
      {
         usb_set_address();
         return;
     3de:	17 c1       	rjmp	.+558    	; 0x60e <usb_process_request+0x440>
      }
      break;

      case SETUP_SET_CONFIGURATION:
      if (USB_SETUP_SET_STAND_DEVICE == bmRequestType)
     3e0:	11 23       	and	r17, r17
     3e2:	09 f0       	breq	.+2      	; 0x3e6 <usb_process_request+0x218>
     3e4:	fd c0       	rjmp	.+506    	; 0x5e0 <usb_process_request+0x412>
Bool usb_set_configuration( void )
{
   U8 configuration_number;

   // Get/Check new configuration
   configuration_number = Usb_read_byte();
     3e6:	80 91 f1 00 	lds	r24, 0x00F1
   if (configuration_number > NB_CONFIGURATION)
     3ea:	82 30       	cpi	r24, 0x02	; 2
     3ec:	08 f0       	brcs	.+2      	; 0x3f0 <usb_process_request+0x222>
     3ee:	f8 c0       	rjmp	.+496    	; 0x5e0 <usb_process_request+0x412>
      return FALSE;  //  Bad configuration number then stall request
   Usb_ack_receive_setup();
     3f0:	90 91 e8 00 	lds	r25, 0x00E8
     3f4:	97 7f       	andi	r25, 0xF7	; 247
     3f6:	90 93 e8 00 	sts	0x00E8, r25
   usb_configuration_nb = configuration_number;
     3fa:	80 93 19 01 	sts	0x0119, r24
   
   Usb_send_control_in();                          // send a ZLP for STATUS phase
     3fe:	90 91 e8 00 	lds	r25, 0x00E8
     402:	9e 7f       	andi	r25, 0xFE	; 254
     404:	90 93 e8 00 	sts	0x00E8, r25
   usb_user_endpoint_init(usb_configuration_nb);   // endpoint configuration
     408:	0e 94 4b 05 	call	0xa96	; 0xa96 <usb_user_endpoint_init>
     40c:	00 c1       	rjmp	.+512    	; 0x60e <usb_process_request+0x440>
{
   U8 wValue;
   U8 wIndex;
   U8 dummy;

   switch (bmRequestType)
     40e:	11 23       	and	r17, r17
     410:	c1 f1       	breq	.+112    	; 0x482 <usb_process_request+0x2b4>
     412:	12 30       	cpi	r17, 0x02	; 2
     414:	09 f0       	breq	.+2      	; 0x418 <usb_process_request+0x24a>
     416:	e4 c0       	rjmp	.+456    	; 0x5e0 <usb_process_request+0x412>
      case USB_SETUP_SET_STAND_INTERFACE:
      return FALSE;                    // Unknow request
      break;
      
      case USB_SETUP_SET_STAND_ENDPOINT:
      wValue = Usb_read_byte();
     418:	80 91 f1 00 	lds	r24, 0x00F1
      dummy  = Usb_read_byte();
     41c:	90 91 f1 00 	lds	r25, 0x00F1
      if (wValue != FEATURE_ENDPOINT_HALT)
     420:	88 23       	and	r24, r24
     422:	09 f0       	breq	.+2      	; 0x426 <usb_process_request+0x258>
     424:	dd c0       	rjmp	.+442    	; 0x5e0 <usb_process_request+0x412>
         return FALSE;                 // Unknow request
      wIndex = (Usb_read_byte() & MSK_EP_DIR);
     426:	e0 91 f1 00 	lds	r30, 0x00F1
     42a:	ef 77       	andi	r30, 0x7F	; 127
      Usb_select_endpoint(wIndex);
     42c:	e0 93 e9 00 	sts	0x00E9, r30
      if( !Is_usb_endpoint_enabled())
     430:	80 91 eb 00 	lds	r24, 0x00EB
     434:	80 ff       	sbrs	r24, 0
     436:	e8 c0       	rjmp	.+464    	; 0x608 <usb_process_request+0x43a>
      {
         Usb_select_endpoint(EP_CONTROL);
         return FALSE;              // Invalid request
      } 
      if(wIndex != EP_CONTROL)
     438:	ee 23       	and	r30, r30
     43a:	b1 f0       	breq	.+44     	; 0x468 <usb_process_request+0x29a>
      {
         Usb_disable_stall_handshake();
     43c:	80 91 eb 00 	lds	r24, 0x00EB
     440:	80 61       	ori	r24, 0x10	; 16
     442:	80 93 eb 00 	sts	0x00EB, r24
         Usb_reset_endpoint(wIndex);
     446:	81 e0       	ldi	r24, 0x01	; 1
     448:	90 e0       	ldi	r25, 0x00	; 0
     44a:	0e 2e       	mov	r0, r30
     44c:	02 c0       	rjmp	.+4      	; 0x452 <usb_process_request+0x284>
     44e:	88 0f       	add	r24, r24
     450:	99 1f       	adc	r25, r25
     452:	0a 94       	dec	r0
     454:	e2 f7       	brpl	.-8      	; 0x44e <usb_process_request+0x280>
     456:	80 93 ea 00 	sts	0x00EA, r24
     45a:	10 92 ea 00 	sts	0x00EA, r1
         Usb_reset_data_toggle();
     45e:	80 91 eb 00 	lds	r24, 0x00EB
     462:	88 60       	ori	r24, 0x08	; 8
     464:	80 93 eb 00 	sts	0x00EB, r24
      }
      Usb_select_endpoint(EP_CONTROL);
     468:	10 92 e9 00 	sts	0x00E9, r1
      endpoint_status[wIndex] = 0x00;
     46c:	f0 e0       	ldi	r31, 0x00	; 0
     46e:	ee 5e       	subi	r30, 0xEE	; 238
     470:	fe 4f       	sbci	r31, 0xFE	; 254
     472:	10 82       	st	Z, r1
     474:	30 c0       	rjmp	.+96     	; 0x4d6 <usb_process_request+0x308>
{
   U8 wValue;
   U8 wIndex;
   U8 dummy;

   switch (bmRequestType)
     476:	11 23       	and	r17, r17
     478:	21 f0       	breq	.+8      	; 0x482 <usb_process_request+0x2b4>
     47a:	12 30       	cpi	r17, 0x02	; 2
     47c:	09 f0       	breq	.+2      	; 0x480 <usb_process_request+0x2b2>
     47e:	b0 c0       	rjmp	.+352    	; 0x5e0 <usb_process_request+0x412>
     480:	03 c0       	rjmp	.+6      	; 0x488 <usb_process_request+0x2ba>
   {
      case USB_SETUP_SET_STAND_DEVICE:
      wValue = Usb_read_byte();
     482:	80 91 f1 00 	lds	r24, 0x00F1
     486:	ac c0       	rjmp	.+344    	; 0x5e0 <usb_process_request+0x412>
      case USB_SETUP_SET_STAND_INTERFACE:
      return FALSE;                    // Unknow request
      break;

      case USB_SETUP_SET_STAND_ENDPOINT:
      wValue   = Usb_read_byte();
     488:	80 91 f1 00 	lds	r24, 0x00F1
      dummy    = Usb_read_byte();                //!< dummy read
     48c:	90 91 f1 00 	lds	r25, 0x00F1
      if (wValue != FEATURE_ENDPOINT_HALT)
     490:	88 23       	and	r24, r24
     492:	09 f0       	breq	.+2      	; 0x496 <usb_process_request+0x2c8>
     494:	a5 c0       	rjmp	.+330    	; 0x5e0 <usb_process_request+0x412>
         return FALSE;                 // Unknow request
      wIndex = (Usb_read_byte() & MSK_EP_DIR);
     496:	e0 91 f1 00 	lds	r30, 0x00F1
     49a:	ef 77       	andi	r30, 0x7F	; 127
      if (wIndex == EP_CONTROL)
     49c:	51 f4       	brne	.+20     	; 0x4b2 <usb_process_request+0x2e4>
      {
         Usb_enable_stall_handshake();
     49e:	80 91 eb 00 	lds	r24, 0x00EB
     4a2:	80 62       	ori	r24, 0x20	; 32
     4a4:	80 93 eb 00 	sts	0x00EB, r24
         Usb_ack_receive_setup();
     4a8:	80 91 e8 00 	lds	r24, 0x00E8
     4ac:	87 7f       	andi	r24, 0xF7	; 247
     4ae:	80 93 e8 00 	sts	0x00E8, r24
      }
      Usb_select_endpoint(wIndex);
     4b2:	e0 93 e9 00 	sts	0x00E9, r30
      if( !Is_usb_endpoint_enabled())
     4b6:	80 91 eb 00 	lds	r24, 0x00EB
     4ba:	80 ff       	sbrs	r24, 0
     4bc:	a5 c0       	rjmp	.+330    	; 0x608 <usb_process_request+0x43a>
      {
         Usb_select_endpoint(EP_CONTROL);
         return FALSE;              // Invalid request
      }
      Usb_enable_stall_handshake();
     4be:	80 91 eb 00 	lds	r24, 0x00EB
     4c2:	80 62       	ori	r24, 0x20	; 32
     4c4:	80 93 eb 00 	sts	0x00EB, r24
      Usb_select_endpoint(EP_CONTROL);
     4c8:	10 92 e9 00 	sts	0x00E9, r1
      endpoint_status[wIndex] = 0x01;
     4cc:	f0 e0       	ldi	r31, 0x00	; 0
     4ce:	ee 5e       	subi	r30, 0xEE	; 238
     4d0:	fe 4f       	sbci	r31, 0xFE	; 254
     4d2:	81 e0       	ldi	r24, 0x01	; 1
     4d4:	80 83       	st	Z, r24
      Usb_ack_receive_setup();
     4d6:	80 91 e8 00 	lds	r24, 0x00E8
     4da:	87 7f       	andi	r24, 0xF7	; 247
     4dc:	80 93 e8 00 	sts	0x00E8, r24
      Usb_send_control_in();
     4e0:	80 91 e8 00 	lds	r24, 0x00E8
     4e4:	8e 7f       	andi	r24, 0xFE	; 254
     4e6:	59 cf       	rjmp	.-334    	; 0x39a <usb_process_request+0x1cc>
Bool usb_get_status( U8 bmRequestType )
{
   U8 wIndex;
   U8 dummy;

   dummy    = Usb_read_byte();                 //!< dummy read
     4e8:	80 91 f1 00 	lds	r24, 0x00F1
   dummy    = Usb_read_byte();                 //!< dummy read
     4ec:	80 91 f1 00 	lds	r24, 0x00F1
   wIndex   = Usb_read_byte();
     4f0:	e0 91 f1 00 	lds	r30, 0x00F1

   switch(bmRequestType)
     4f4:	11 38       	cpi	r17, 0x81	; 129
     4f6:	69 f0       	breq	.+26     	; 0x512 <usb_process_request+0x344>
     4f8:	12 38       	cpi	r17, 0x82	; 130
     4fa:	99 f0       	breq	.+38     	; 0x522 <usb_process_request+0x354>
     4fc:	10 38       	cpi	r17, 0x80	; 128
     4fe:	09 f0       	breq	.+2      	; 0x502 <usb_process_request+0x334>
     500:	6f c0       	rjmp	.+222    	; 0x5e0 <usb_process_request+0x412>
   {
      case USB_SETUP_GET_STAND_DEVICE:
      Usb_ack_receive_setup();
     502:	80 91 e8 00 	lds	r24, 0x00E8
     506:	87 7f       	andi	r24, 0xF7	; 247
     508:	80 93 e8 00 	sts	0x00E8, r24
      Usb_write_byte(device_status);
     50c:	80 91 05 01 	lds	r24, 0x0105
     510:	12 c0       	rjmp	.+36     	; 0x536 <usb_process_request+0x368>
      break;

      case USB_SETUP_GET_STAND_INTERFACE:
      Usb_ack_receive_setup();
     512:	80 91 e8 00 	lds	r24, 0x00E8
     516:	87 7f       	andi	r24, 0xF7	; 247
     518:	80 93 e8 00 	sts	0x00E8, r24
      Usb_write_byte(0);      // Reserved - always 0
     51c:	10 92 f1 00 	sts	0x00F1, r1
     520:	0c c0       	rjmp	.+24     	; 0x53a <usb_process_request+0x36c>
      break;

      case USB_SETUP_GET_STAND_ENDPOINT:
      Usb_ack_receive_setup();
     522:	80 91 e8 00 	lds	r24, 0x00E8
     526:	87 7f       	andi	r24, 0xF7	; 247
     528:	80 93 e8 00 	sts	0x00E8, r24
      wIndex = wIndex & MSK_EP_DIR;
     52c:	ef 77       	andi	r30, 0x7F	; 127
      Usb_write_byte( endpoint_status[wIndex] );
     52e:	f0 e0       	ldi	r31, 0x00	; 0
     530:	ee 5e       	subi	r30, 0xEE	; 238
     532:	fe 4f       	sbci	r31, 0xFE	; 254
     534:	80 81       	ld	r24, Z
     536:	80 93 f1 00 	sts	0x00F1, r24
      break;
    
      default:
      return FALSE;
   }
   Usb_write_byte(0);
     53a:	10 92 f1 00 	sts	0x00F1, r1

   Usb_send_control_in();
     53e:	80 91 e8 00 	lds	r24, 0x00E8
     542:	8e 7f       	andi	r24, 0xFE	; 254
     544:	80 93 e8 00 	sts	0x00E8, r24
   while( !Is_usb_receive_out() );
     548:	80 91 e8 00 	lds	r24, 0x00E8
     54c:	82 ff       	sbrs	r24, 2
     54e:	fc cf       	rjmp	.-8      	; 0x548 <usb_process_request+0x37a>
     550:	1c cf       	rjmp	.-456    	; 0x38a <usb_process_request+0x1bc>
      if (usb_get_status(bmRequestType))
         return;
      break;

      case SETUP_GET_INTERFACE:
      if (USB_SETUP_GET_STAND_INTERFACE == bmRequestType)
     552:	11 38       	cpi	r17, 0x81	; 129
     554:	09 f0       	breq	.+2      	; 0x558 <usb_process_request+0x38a>
     556:	44 c0       	rjmp	.+136    	; 0x5e0 <usb_process_request+0x412>
   U16   wInterface;
   U8    wValue_msb;
   U8    wValue_lsb;

   // Read wValue
   wValue_lsb = Usb_read_byte();
     558:	80 91 f1 00 	lds	r24, 0x00F1
   wValue_msb = Usb_read_byte();
     55c:	80 91 f1 00 	lds	r24, 0x00F1
   // wValue = Alternate Setting
   // wIndex = Interface
   LSB(wInterface)=Usb_read_byte();
     560:	90 91 f1 00 	lds	r25, 0x00F1
     564:	99 83       	std	Y+1, r25	; 0x01
   MSB(wInterface)=Usb_read_byte();
     566:	90 91 f1 00 	lds	r25, 0x00F1
     56a:	9a 83       	std	Y+2, r25	; 0x02
   if( (0!=wValue_msb) || (0!=wValue_msb) )
     56c:	88 23       	and	r24, r24
     56e:	c1 f5       	brne	.+112    	; 0x5e0 <usb_process_request+0x412>
      return FALSE;
   Usb_ack_receive_setup();
     570:	80 91 e8 00 	lds	r24, 0x00E8
     574:	87 7f       	andi	r24, 0xF7	; 247
     576:	80 93 e8 00 	sts	0x00E8, r24
   
   Usb_write_byte( usb_user_interface_get(wInterface) );
     57a:	89 81       	ldd	r24, Y+1	; 0x01
     57c:	9a 81       	ldd	r25, Y+2	; 0x02
     57e:	0e 94 5e 05 	call	0xabc	; 0xabc <usb_user_interface_get>
     582:	80 93 f1 00 	sts	0x00F1, r24
   Usb_send_control_in();
     586:	80 91 e8 00 	lds	r24, 0x00E8
     58a:	8e 7f       	andi	r24, 0xFE	; 254
     58c:	80 93 e8 00 	sts	0x00E8, r24

   while( !Is_usb_receive_out() );
     590:	80 91 e8 00 	lds	r24, 0x00E8
     594:	82 ff       	sbrs	r24, 2
     596:	fc cf       	rjmp	.-8      	; 0x590 <usb_process_request+0x3c2>
     598:	f8 ce       	rjmp	.-528    	; 0x38a <usb_process_request+0x1bc>
            return;
      }
      break;

      case SETUP_SET_INTERFACE:
      if (bmRequestType == USB_SETUP_SET_STAND_INTERFACE)
     59a:	11 30       	cpi	r17, 0x01	; 1
     59c:	09 f5       	brne	.+66     	; 0x5e0 <usb_process_request+0x412>
   U16   wInterface;
   U8    wValue_msb;
   U8    wValue_lsb;

   // Read wValue
   wValue_lsb = Usb_read_byte();
     59e:	60 91 f1 00 	lds	r22, 0x00F1
   wValue_msb = Usb_read_byte();
     5a2:	80 91 f1 00 	lds	r24, 0x00F1
   // wValue = Alternate Setting
   // wIndex = Interface
   LSB(wInterface)=Usb_read_byte();
     5a6:	90 91 f1 00 	lds	r25, 0x00F1
     5aa:	99 83       	std	Y+1, r25	; 0x01
   MSB(wInterface)=Usb_read_byte();
     5ac:	90 91 f1 00 	lds	r25, 0x00F1
     5b0:	9a 83       	std	Y+2, r25	; 0x02
   if( 0!=wValue_msb )
     5b2:	88 23       	and	r24, r24
     5b4:	a9 f4       	brne	.+42     	; 0x5e0 <usb_process_request+0x412>
      return FALSE;
   Usb_ack_receive_setup();
     5b6:	80 91 e8 00 	lds	r24, 0x00E8
     5ba:	87 7f       	andi	r24, 0xF7	; 247
     5bc:	80 93 e8 00 	sts	0x00E8, r24
   
   usb_user_interface_reset(wInterface, wValue_lsb);
     5c0:	89 81       	ldd	r24, Y+1	; 0x01
     5c2:	9a 81       	ldd	r25, Y+2	; 0x02
     5c4:	0e 94 60 05 	call	0xac0	; 0xac0 <usb_user_interface_reset>
   Usb_select_endpoint(EP_CONTROL);
     5c8:	10 92 e9 00 	sts	0x00E9, r1
            
   Usb_send_control_in();
     5cc:	80 91 e8 00 	lds	r24, 0x00E8
     5d0:	8e 7f       	andi	r24, 0xFE	; 254
     5d2:	80 93 e8 00 	sts	0x00E8, r24
   while(!Is_usb_in_ready());
     5d6:	80 91 e8 00 	lds	r24, 0x00E8
     5da:	80 ff       	sbrs	r24, 0
     5dc:	fc cf       	rjmp	.-8      	; 0x5d6 <usb_process_request+0x408>
     5de:	17 c0       	rjmp	.+46     	; 0x60e <usb_process_request+0x440>
      default:
      break;
   }

   // un-supported like standard request => call to user read request
   if( !usb_user_read_request(bmRequestType, bmRequest) )
     5e0:	81 2f       	mov	r24, r17
     5e2:	60 2f       	mov	r22, r16
     5e4:	0e 94 24 07 	call	0xe48	; 0xe48 <usb_user_read_request>
     5e8:	88 23       	and	r24, r24
     5ea:	89 f4       	brne	.+34     	; 0x60e <usb_process_request+0x440>
   {
      // Request unknow in the specific request list from interface
      // keep that order (set StallRq/clear RxSetup) or a
      // OUT request following the SETUP may be acknowledged
      Usb_enable_stall_handshake();
     5ec:	80 91 eb 00 	lds	r24, 0x00EB
     5f0:	80 62       	ori	r24, 0x20	; 32
     5f2:	80 93 eb 00 	sts	0x00EB, r24
      Usb_ack_receive_setup();
     5f6:	80 91 e8 00 	lds	r24, 0x00E8
     5fa:	87 7f       	andi	r24, 0xF7	; 247
     5fc:	80 93 e8 00 	sts	0x00E8, r24
      endpoint_status[(EP_CONTROL & MSK_EP_DIR)] = 0x01;
     600:	81 e0       	ldi	r24, 0x01	; 1
     602:	80 93 12 01 	sts	0x0112, r24
     606:	03 c0       	rjmp	.+6      	; 0x60e <usb_process_request+0x440>
         Usb_ack_receive_setup();
      }
      Usb_select_endpoint(wIndex);
      if( !Is_usb_endpoint_enabled())
      {
         Usb_select_endpoint(EP_CONTROL);
     608:	10 92 e9 00 	sts	0x00E9, r1
     60c:	e9 cf       	rjmp	.-46     	; 0x5e0 <usb_process_request+0x412>
      // OUT request following the SETUP may be acknowledged
      Usb_enable_stall_handshake();
      Usb_ack_receive_setup();
      endpoint_status[(EP_CONTROL & MSK_EP_DIR)] = 0x01;
   }
}
     60e:	0f 90       	pop	r0
     610:	0f 90       	pop	r0
     612:	cf 91       	pop	r28
     614:	df 91       	pop	r29
     616:	1f 91       	pop	r17
     618:	0f 91       	pop	r16
     61a:	08 95       	ret

0000061c <usb_generate_remote_wakeup>:

//! This function manages the remote wake up generation
//!
void usb_generate_remote_wakeup(void)
{
   if(Is_pll_ready()==FALSE)
     61c:	09 b4       	in	r0, 0x29	; 41
     61e:	00 fc       	sbrc	r0, 0
     620:	0b c0       	rjmp	.+22     	; 0x638 <usb_generate_remote_wakeup+0x1c>
   {
      Pll_start_auto();
     622:	82 b7       	in	r24, 0x32	; 50
     624:	80 7f       	andi	r24, 0xF0	; 240
     626:	82 bf       	out	0x32, r24	; 50
     628:	82 b7       	in	r24, 0x32	; 50
     62a:	8a 64       	ori	r24, 0x4A	; 74
     62c:	82 bf       	out	0x32, r24	; 50
     62e:	82 e1       	ldi	r24, 0x12	; 18
     630:	89 bd       	out	0x29, r24	; 41
      Wait_pll_ready();
     632:	09 b4       	in	r0, 0x29	; 41
     634:	00 fe       	sbrs	r0, 0
     636:	fd cf       	rjmp	.-6      	; 0x632 <usb_generate_remote_wakeup+0x16>
   }
   Usb_unfreeze_clock();
     638:	80 91 d8 00 	lds	r24, 0x00D8
     63c:	8f 7d       	andi	r24, 0xDF	; 223
     63e:	80 93 d8 00 	sts	0x00D8, r24
   if (remote_wakeup_feature == ENABLED)
     642:	80 91 04 01 	lds	r24, 0x0104
     646:	81 30       	cpi	r24, 0x01	; 1
     648:	39 f4       	brne	.+14     	; 0x658 <usb_generate_remote_wakeup+0x3c>
   {
      Usb_initiate_remote_wake_up();
     64a:	80 91 e0 00 	lds	r24, 0x00E0
     64e:	82 60       	ori	r24, 0x02	; 2
     650:	80 93 e0 00 	sts	0x00E0, r24
      remote_wakeup_feature = DISABLED;
     654:	10 92 04 01 	sts	0x0104, r1
     658:	08 95       	ret

0000065a <usb_task_init>:
 *  @return none
 */
void usb_task_init(void)
{
   #if (USE_USB_PADS_REGULATOR==ENABLE)  // Otherwise assume USB PADs regulator is not used
   Usb_enable_regulator();
     65a:	e7 ed       	ldi	r30, 0xD7	; 215
     65c:	f0 e0       	ldi	r31, 0x00	; 0
     65e:	80 81       	ld	r24, Z
     660:	81 60       	ori	r24, 0x01	; 1
     662:	80 83       	st	Z, r24
   #endif
   usb_device_task_init();
     664:	0e 94 56 04 	call	0x8ac	; 0x8ac <usb_device_task_init>
}
     668:	08 95       	ret

0000066a <usb_task>:
 *
 *  @return none
*/
void usb_task(void)
{
   usb_device_task();
     66a:	0e 94 91 04 	call	0x922	; 0x922 <usb_device_task>
}
     66e:	08 95       	ret

00000670 <__vector_10>:
 ISR(USB_GEN_vect)
#else
#pragma vector = USB_General_vect
__interrupt void usb_general_interrupt()
#endif
{
     670:	1f 92       	push	r1
     672:	0f 92       	push	r0
     674:	0f b6       	in	r0, 0x3f	; 63
     676:	0f 92       	push	r0
     678:	11 24       	eor	r1, r1
     67a:	2f 93       	push	r18
     67c:	3f 93       	push	r19
     67e:	4f 93       	push	r20
     680:	5f 93       	push	r21
     682:	6f 93       	push	r22
     684:	7f 93       	push	r23
     686:	8f 93       	push	r24
     688:	9f 93       	push	r25
     68a:	af 93       	push	r26
     68c:	bf 93       	push	r27
     68e:	ef 93       	push	r30
     690:	ff 93       	push	r31
  // - Device start of frame received
   if (Is_usb_sof() && Is_sof_interrupt_enabled())
     692:	80 91 e1 00 	lds	r24, 0x00E1
     696:	82 ff       	sbrs	r24, 2
     698:	09 c0       	rjmp	.+18     	; 0x6ac <__vector_10+0x3c>
     69a:	80 91 e2 00 	lds	r24, 0x00E2
     69e:	82 ff       	sbrs	r24, 2
     6a0:	05 c0       	rjmp	.+10     	; 0x6ac <__vector_10+0x3c>
   {
      Usb_ack_sof();
     6a2:	8b ef       	ldi	r24, 0xFB	; 251
     6a4:	80 93 e1 00 	sts	0x00E1, r24
      Usb_sof_action();
     6a8:	0e 94 c9 07 	call	0xf92	; 0xf92 <sof_action>
   }
  // - Device Suspend event (no more USB activity detected)
   if (Is_usb_suspend() && Is_suspend_interrupt_enabled())
     6ac:	80 91 e1 00 	lds	r24, 0x00E1
     6b0:	80 ff       	sbrs	r24, 0
     6b2:	29 c0       	rjmp	.+82     	; 0x706 <__vector_10+0x96>
     6b4:	80 91 e2 00 	lds	r24, 0x00E2
     6b8:	80 ff       	sbrs	r24, 0
     6ba:	25 c0       	rjmp	.+74     	; 0x706 <__vector_10+0x96>
   {
      usb_suspended=TRUE;
     6bc:	81 e0       	ldi	r24, 0x01	; 1
     6be:	80 93 09 01 	sts	0x0109, r24
      Usb_ack_wake_up();                 // clear wake up to detect next event
     6c2:	8f ee       	ldi	r24, 0xEF	; 239
     6c4:	80 93 e1 00 	sts	0x00E1, r24
      Usb_send_event(EVT_USB_SUSPEND);
     6c8:	80 91 06 01 	lds	r24, 0x0106
     6cc:	90 91 07 01 	lds	r25, 0x0107
     6d0:	80 62       	ori	r24, 0x20	; 32
     6d2:	90 93 07 01 	sts	0x0107, r25
     6d6:	80 93 06 01 	sts	0x0106, r24
      Usb_ack_suspend();
     6da:	8e ef       	ldi	r24, 0xFE	; 254
     6dc:	80 93 e1 00 	sts	0x00E1, r24
      Usb_enable_wake_up_interrupt();
     6e0:	80 91 e2 00 	lds	r24, 0x00E2
     6e4:	80 61       	ori	r24, 0x10	; 16
     6e6:	80 93 e2 00 	sts	0x00E2, r24
      Usb_disable_resume_interrupt();
     6ea:	80 91 e2 00 	lds	r24, 0x00E2
     6ee:	8f 7d       	andi	r24, 0xDF	; 223
     6f0:	80 93 e2 00 	sts	0x00E2, r24
      Usb_freeze_clock();
     6f4:	80 91 d8 00 	lds	r24, 0x00D8
     6f8:	80 62       	ori	r24, 0x20	; 32
     6fa:	80 93 d8 00 	sts	0x00D8, r24
      Stop_pll();
     6fe:	89 b5       	in	r24, 0x29	; 41
     700:	8d 7f       	andi	r24, 0xFD	; 253
     702:	89 bd       	out	0x29, r24	; 41
     704:	19 bc       	out	0x29, r1	; 41
      Usb_suspend_action();
   }
  // - Wake up event (USB activity detected): Used to resume
   if (Is_usb_wake_up() && Is_wake_up_interrupt_enabled())
     706:	80 91 e1 00 	lds	r24, 0x00E1
     70a:	84 ff       	sbrs	r24, 4
     70c:	47 c0       	rjmp	.+142    	; 0x79c <__vector_10+0x12c>
     70e:	80 91 e2 00 	lds	r24, 0x00E2
     712:	84 ff       	sbrs	r24, 4
     714:	43 c0       	rjmp	.+134    	; 0x79c <__vector_10+0x12c>
   {
      if(Is_pll_ready()==FALSE)
     716:	09 b4       	in	r0, 0x29	; 41
     718:	00 fc       	sbrc	r0, 0
     71a:	0b c0       	rjmp	.+22     	; 0x732 <__vector_10+0xc2>
      {
         #ifdef USE_USB_AUTOBAUD
            usb_autobaud();
         #else
            Pll_start_auto();
     71c:	82 b7       	in	r24, 0x32	; 50
     71e:	80 7f       	andi	r24, 0xF0	; 240
     720:	82 bf       	out	0x32, r24	; 50
     722:	82 b7       	in	r24, 0x32	; 50
     724:	8a 64       	ori	r24, 0x4A	; 74
     726:	82 bf       	out	0x32, r24	; 50
     728:	82 e1       	ldi	r24, 0x12	; 18
     72a:	89 bd       	out	0x29, r24	; 41
         #endif
         Wait_pll_ready();
     72c:	09 b4       	in	r0, 0x29	; 41
     72e:	00 fe       	sbrs	r0, 0
     730:	fd cf       	rjmp	.-6      	; 0x72c <__vector_10+0xbc>
      }
      Usb_unfreeze_clock();
     732:	80 91 d8 00 	lds	r24, 0x00D8
     736:	8f 7d       	andi	r24, 0xDF	; 223
     738:	80 93 d8 00 	sts	0x00D8, r24
      Usb_ack_wake_up();
     73c:	9f ee       	ldi	r25, 0xEF	; 239
     73e:	90 93 e1 00 	sts	0x00E1, r25
      if(usb_suspended)
     742:	80 91 09 01 	lds	r24, 0x0109
     746:	88 23       	and	r24, r24
     748:	49 f1       	breq	.+82     	; 0x79c <__vector_10+0x12c>
            Usb_freeze_clock();
            Stop_pll();
            Usb_suspend_action();
         }
#else
         Usb_enable_resume_interrupt();
     74a:	80 91 e2 00 	lds	r24, 0x00E2
     74e:	80 62       	ori	r24, 0x20	; 32
     750:	80 93 e2 00 	sts	0x00E2, r24
         Usb_enable_reset_interrupt();
     754:	80 91 e2 00 	lds	r24, 0x00E2
     758:	88 60       	ori	r24, 0x08	; 8
     75a:	80 93 e2 00 	sts	0x00E2, r24
         Usb_ack_wake_up();
     75e:	90 93 e1 00 	sts	0x00E1, r25
         Usb_disable_wake_up_interrupt();
     762:	80 91 e2 00 	lds	r24, 0x00E2
     766:	8f 7e       	andi	r24, 0xEF	; 239
     768:	80 93 e2 00 	sts	0x00E2, r24
         Usb_wake_up_action();
         Usb_send_event(EVT_USB_WAKE_UP);
     76c:	80 91 06 01 	lds	r24, 0x0106
     770:	90 91 07 01 	lds	r25, 0x0107
     774:	80 64       	ori	r24, 0x40	; 64
     776:	90 93 07 01 	sts	0x0107, r25
     77a:	80 93 06 01 	sts	0x0106, r24
         Usb_enable_suspend_interrupt();
     77e:	80 91 e2 00 	lds	r24, 0x00E2
     782:	81 60       	ori	r24, 0x01	; 1
     784:	80 93 e2 00 	sts	0x00E2, r24
         Usb_enable_resume_interrupt();
     788:	80 91 e2 00 	lds	r24, 0x00E2
     78c:	80 62       	ori	r24, 0x20	; 32
     78e:	80 93 e2 00 	sts	0x00E2, r24
         Usb_enable_reset_interrupt();
     792:	80 91 e2 00 	lds	r24, 0x00E2
     796:	88 60       	ori	r24, 0x08	; 8
     798:	80 93 e2 00 	sts	0x00E2, r24
#endif
      }
   }
  // - Resume state bus detection
   if (Is_usb_resume() && Is_resume_interrupt_enabled())
     79c:	80 91 e1 00 	lds	r24, 0x00E1
     7a0:	85 ff       	sbrs	r24, 5
     7a2:	1c c0       	rjmp	.+56     	; 0x7dc <__vector_10+0x16c>
     7a4:	80 91 e2 00 	lds	r24, 0x00E2
     7a8:	85 ff       	sbrs	r24, 5
     7aa:	18 c0       	rjmp	.+48     	; 0x7dc <__vector_10+0x16c>
   {
      usb_suspended = FALSE;
     7ac:	10 92 09 01 	sts	0x0109, r1
      Usb_disable_wake_up_interrupt();
     7b0:	80 91 e2 00 	lds	r24, 0x00E2
     7b4:	8f 7e       	andi	r24, 0xEF	; 239
     7b6:	80 93 e2 00 	sts	0x00E2, r24
      Usb_ack_resume();
     7ba:	8f ed       	ldi	r24, 0xDF	; 223
     7bc:	80 93 e1 00 	sts	0x00E1, r24
      Usb_disable_resume_interrupt();
     7c0:	80 91 e2 00 	lds	r24, 0x00E2
     7c4:	8f 7d       	andi	r24, 0xDF	; 223
     7c6:	80 93 e2 00 	sts	0x00E2, r24
      Usb_resume_action();
      Usb_send_event(EVT_USB_RESUME);
     7ca:	80 91 06 01 	lds	r24, 0x0106
     7ce:	90 91 07 01 	lds	r25, 0x0107
     7d2:	80 68       	ori	r24, 0x80	; 128
     7d4:	90 93 07 01 	sts	0x0107, r25
     7d8:	80 93 06 01 	sts	0x0106, r24
   }
  // - USB bus reset detection
   if (Is_usb_reset()&& Is_reset_interrupt_enabled())
     7dc:	80 91 e1 00 	lds	r24, 0x00E1
     7e0:	83 ff       	sbrs	r24, 3
     7e2:	12 c0       	rjmp	.+36     	; 0x808 <__vector_10+0x198>
     7e4:	80 91 e2 00 	lds	r24, 0x00E2
     7e8:	83 ff       	sbrs	r24, 3
     7ea:	0e c0       	rjmp	.+28     	; 0x808 <__vector_10+0x198>
   {
      Usb_ack_reset();
     7ec:	87 ef       	ldi	r24, 0xF7	; 247
     7ee:	80 93 e1 00 	sts	0x00E1, r24
      usb_init_device();
     7f2:	0e 94 3c 05 	call	0xa78	; 0xa78 <usb_init_device>
      Usb_reset_action();
      Usb_send_event(EVT_USB_RESET);
     7f6:	80 91 06 01 	lds	r24, 0x0106
     7fa:	90 91 07 01 	lds	r25, 0x0107
     7fe:	91 60       	ori	r25, 0x01	; 1
     800:	90 93 07 01 	sts	0x0107, r25
     804:	80 93 06 01 	sts	0x0106, r24
   }

}
     808:	ff 91       	pop	r31
     80a:	ef 91       	pop	r30
     80c:	bf 91       	pop	r27
     80e:	af 91       	pop	r26
     810:	9f 91       	pop	r25
     812:	8f 91       	pop	r24
     814:	7f 91       	pop	r23
     816:	6f 91       	pop	r22
     818:	5f 91       	pop	r21
     81a:	4f 91       	pop	r20
     81c:	3f 91       	pop	r19
     81e:	2f 91       	pop	r18
     820:	0f 90       	pop	r0
     822:	0f be       	out	0x3f, r0	; 63
     824:	0f 90       	pop	r0
     826:	1f 90       	pop	r1
     828:	18 95       	reti

0000082a <scheduler_init>:
   #endif
   #ifdef TOKEN_MODE
      token =  TOKEN_FREE;
   #endif
   #ifdef Scheduler_task_1_init
      Scheduler_task_1_init();  
     82a:	0e 94 2d 03 	call	0x65a	; 0x65a <usb_task_init>
      Scheduler_call_next_init();
   #endif
   #ifdef Scheduler_task_2_init
      Scheduler_task_2_init();  
     82e:	0e 94 a6 07 	call	0xf4c	; 0xf4c <hid_task_init>
   #ifdef Scheduler_task_11_init
      Scheduler_task_11_init();
      Scheduler_call_next_init();
   #endif
   Scheduler_reset_tick_flag();
}
     832:	08 95       	ret

00000834 <scheduler_tasks>:

   for(;;)
   {
      Scheduler_new_schedule();
      #ifdef Scheduler_task_1
         Scheduler_task_1();
     834:	0e 94 35 03 	call	0x66a	; 0x66a <usb_task>
         Scheduler_call_next_task();
      #endif
      #ifdef Scheduler_task_2
         Scheduler_task_2();
     838:	0e 94 cd 08 	call	0x119a	; 0x119a <hid_task>
     83c:	fb cf       	rjmp	.-10     	; 0x834 <scheduler_tasks>

0000083e <scheduler>:
//!
//! @param  :none
//! @return :none
void scheduler (void)
{
   scheduler_init();
     83e:	0e 94 15 04 	call	0x82a	; 0x82a <scheduler_init>
   scheduler_tasks();
     842:	0e 94 1a 04 	call	0x834	; 0x834 <scheduler_tasks>
}
     846:	08 95       	ret

00000848 <scheduler_empty_fct>:
//!
//! @param  :none
//! @return :none
void scheduler_empty_fct (void)
{
}
     848:	08 95       	ret

0000084a <start_boot>:
//! This function should be called when a special eve,t is detected in the application that requires the bootloader activation.
//! When this function is used, be sure to implement the "start_boot_if_required()" function at the begining of main().   
//!
void start_boot(void)
{
   boot_key=0x55AAAA55;
     84a:	85 e5       	ldi	r24, 0x55	; 85
     84c:	9a ea       	ldi	r25, 0xAA	; 170
     84e:	aa ea       	ldi	r26, 0xAA	; 170
     850:	b5 e5       	ldi	r27, 0x55	; 85
     852:	80 93 a3 01 	sts	0x01A3, r24
     856:	90 93 a4 01 	sts	0x01A4, r25
     85a:	a0 93 a5 01 	sts	0x01A5, r26
     85e:	b0 93 a6 01 	sts	0x01A6, r27
     862:	ff cf       	rjmp	.-2      	; 0x862 <start_boot+0x18>

00000864 <start_boot_if_required>:
//! The function starts the on-chip bootloader if the application has posted such a request.
//! This function sould be inserted at the begining of the main function.   
//!
void start_boot_if_required(void)
{
  if(boot_key==GOTOBOOTKEY)
     864:	80 91 a3 01 	lds	r24, 0x01A3
     868:	90 91 a4 01 	lds	r25, 0x01A4
     86c:	a0 91 a5 01 	lds	r26, 0x01A5
     870:	b0 91 a6 01 	lds	r27, 0x01A6
     874:	85 35       	cpi	r24, 0x55	; 85
     876:	2a ea       	ldi	r18, 0xAA	; 170
     878:	92 07       	cpc	r25, r18
     87a:	2a ea       	ldi	r18, 0xAA	; 170
     87c:	a2 07       	cpc	r26, r18
     87e:	25 e5       	ldi	r18, 0x55	; 85
     880:	b2 07       	cpc	r27, r18
     882:	69 f4       	brne	.+26     	; 0x89e <start_boot_if_required+0x3a>
  {
      boot_key = 0;
     884:	10 92 a3 01 	sts	0x01A3, r1
     888:	10 92 a4 01 	sts	0x01A4, r1
     88c:	10 92 a5 01 	sts	0x01A5, r1
     890:	10 92 a6 01 	sts	0x01A6, r1
      (*start_bootloader)();           //! Jumping to bootloader
     894:	e0 91 00 01 	lds	r30, 0x0100
     898:	f0 91 01 01 	lds	r31, 0x0101
     89c:	09 95       	icall
     89e:	08 95       	ret

000008a0 <goto_boot>:

//! @brief This function jump to on-chip bootloader without CPU reset.
//!
void goto_boot(void)
{
   (*start_bootloader)();              //! Jumping to bootloader
     8a0:	e0 91 00 01 	lds	r30, 0x0100
     8a4:	f0 91 01 01 	lds	r31, 0x0101
     8a8:	09 95       	icall
}
     8aa:	08 95       	ret

000008ac <usb_device_task_init>:
//! @return none
//!
//!/
void usb_device_task_init(void)
{
   Usb_disable();
     8ac:	e8 ed       	ldi	r30, 0xD8	; 216
     8ae:	f0 e0       	ldi	r31, 0x00	; 0
     8b0:	80 81       	ld	r24, Z
     8b2:	8f 77       	andi	r24, 0x7F	; 127
     8b4:	80 83       	st	Z, r24
   Usb_enable();
     8b6:	80 81       	ld	r24, Z
     8b8:	80 68       	ori	r24, 0x80	; 128
     8ba:	80 83       	st	Z, r24
#if (USB_LOW_SPEED_DEVICE==ENABLE)
   Usb_low_speed_mode();
#endif
   Usb_enable_vbus_pad();
     8bc:	80 81       	ld	r24, Z
     8be:	80 61       	ori	r24, 0x10	; 16
     8c0:	80 83       	st	Z, r24
   Enable_interrupt();
     8c2:	78 94       	sei
}
     8c4:	08 95       	ret

000008c6 <usb_start_device>:
//!
//! @return none
//!
void usb_start_device (void)
{
   Usb_freeze_clock();
     8c6:	80 91 d8 00 	lds	r24, 0x00D8
     8ca:	80 62       	ori	r24, 0x20	; 32
     8cc:	80 93 d8 00 	sts	0x00D8, r24
#ifndef USE_USB_AUTOBAUD
   Pll_start_auto();
     8d0:	82 b7       	in	r24, 0x32	; 50
     8d2:	80 7f       	andi	r24, 0xF0	; 240
     8d4:	82 bf       	out	0x32, r24	; 50
     8d6:	82 b7       	in	r24, 0x32	; 50
     8d8:	8a 64       	ori	r24, 0x4A	; 74
     8da:	82 bf       	out	0x32, r24	; 50
     8dc:	82 e1       	ldi	r24, 0x12	; 18
     8de:	89 bd       	out	0x29, r24	; 41
#else
   usb_autobaud();
#endif
   Wait_pll_ready();
     8e0:	09 b4       	in	r0, 0x29	; 41
     8e2:	00 fe       	sbrs	r0, 0
     8e4:	fd cf       	rjmp	.-6      	; 0x8e0 <usb_start_device+0x1a>
   Disable_interrupt();
     8e6:	f8 94       	cli
   Usb_unfreeze_clock();
     8e8:	80 91 d8 00 	lds	r24, 0x00D8
     8ec:	8f 7d       	andi	r24, 0xDF	; 223
     8ee:	80 93 d8 00 	sts	0x00D8, r24
   Usb_attach();
     8f2:	80 91 e0 00 	lds	r24, 0x00E0
     8f6:	8e 7f       	andi	r24, 0xFE	; 254
     8f8:	80 93 e0 00 	sts	0x00E0, r24
#if (USB_RESET_CPU == ENABLED)
   Usb_reset_all_system();
#else
   Usb_reset_macro_only();
     8fc:	80 91 e0 00 	lds	r24, 0x00E0
     900:	87 7f       	andi	r24, 0xF7	; 247
     902:	80 93 e0 00 	sts	0x00E0, r24
#endif
   usb_init_device();         // configure the USB controller EP0
     906:	0e 94 3c 05 	call	0xa78	; 0xa78 <usb_init_device>
   Usb_enable_suspend_interrupt();
     90a:	80 91 e2 00 	lds	r24, 0x00E2
     90e:	81 60       	ori	r24, 0x01	; 1
     910:	80 93 e2 00 	sts	0x00E2, r24
   Usb_enable_reset_interrupt();
     914:	80 91 e2 00 	lds	r24, 0x00E2
     918:	88 60       	ori	r24, 0x08	; 8
     91a:	80 93 e2 00 	sts	0x00E2, r24
   Enable_interrupt();
     91e:	78 94       	sei
}
     920:	08 95       	ret

00000922 <usb_device_task>:
//!
//! @return none
void usb_device_task(void)
{
   //- VBUS state detection
   if (Is_usb_vbus_high()&& (usb_connected==FALSE))
     922:	80 91 d9 00 	lds	r24, 0x00D9
     926:	80 ff       	sbrs	r24, 0
     928:	1c c0       	rjmp	.+56     	; 0x962 <usb_device_task+0x40>
     92a:	80 91 08 01 	lds	r24, 0x0108
     92e:	88 23       	and	r24, r24
     930:	c1 f4       	brne	.+48     	; 0x962 <usb_device_task+0x40>
   {
      usb_connected = TRUE;
     932:	81 e0       	ldi	r24, 0x01	; 1
     934:	80 93 08 01 	sts	0x0108, r24
      Usb_send_event(EVT_USB_POWERED);
     938:	80 91 06 01 	lds	r24, 0x0106
     93c:	90 91 07 01 	lds	r25, 0x0107
     940:	82 60       	ori	r24, 0x02	; 2
     942:	90 93 07 01 	sts	0x0107, r25
     946:	80 93 06 01 	sts	0x0106, r24
      Usb_vbus_on_action();
      Usb_enable();
     94a:	80 91 d8 00 	lds	r24, 0x00D8
     94e:	80 68       	ori	r24, 0x80	; 128
     950:	80 93 d8 00 	sts	0x00D8, r24
      usb_start_device();
     954:	0e 94 63 04 	call	0x8c6	; 0x8c6 <usb_start_device>
      Usb_attach();
     958:	80 91 e0 00 	lds	r24, 0x00E0
     95c:	8e 7f       	andi	r24, 0xFE	; 254
     95e:	80 93 e0 00 	sts	0x00E0, r24
   }
   if (Is_usb_vbus_low()&& (usb_connected==TRUE))
     962:	80 91 d9 00 	lds	r24, 0x00D9
     966:	80 fd       	sbrc	r24, 0
     968:	18 c0       	rjmp	.+48     	; 0x99a <usb_device_task+0x78>
     96a:	36 c0       	rjmp	.+108    	; 0x9d8 <usb_device_task+0xb6>
   {
      usb_connected = FALSE;
     96c:	10 92 08 01 	sts	0x0108, r1
      usb_configuration_nb = 0;
     970:	10 92 19 01 	sts	0x0119, r1
      Usb_send_event(EVT_USB_UNPOWERED);
     974:	80 91 06 01 	lds	r24, 0x0106
     978:	90 91 07 01 	lds	r25, 0x0107
     97c:	84 60       	ori	r24, 0x04	; 4
     97e:	90 93 07 01 	sts	0x0107, r25
     982:	80 93 06 01 	sts	0x0106, r24
      Usb_detach();
     986:	80 91 e0 00 	lds	r24, 0x00E0
     98a:	81 60       	ori	r24, 0x01	; 1
     98c:	80 93 e0 00 	sts	0x00E0, r24
      Usb_freeze_clock();
     990:	80 91 d8 00 	lds	r24, 0x00D8
     994:	80 62       	ori	r24, 0x20	; 32
     996:	80 93 d8 00 	sts	0x00D8, r24
      Usb_vbus_off_action();
   }

   if(Is_usb_event(EVT_USB_RESET))
     99a:	80 91 06 01 	lds	r24, 0x0106
     99e:	90 91 07 01 	lds	r25, 0x0107
     9a2:	90 ff       	sbrs	r25, 0
     9a4:	10 c0       	rjmp	.+32     	; 0x9c6 <usb_device_task+0xa4>
   {
      Usb_ack_event(EVT_USB_RESET);
     9a6:	80 91 06 01 	lds	r24, 0x0106
     9aa:	90 91 07 01 	lds	r25, 0x0107
     9ae:	9e 7f       	andi	r25, 0xFE	; 254
     9b0:	90 93 07 01 	sts	0x0107, r25
     9b4:	80 93 06 01 	sts	0x0106, r24
      Usb_reset_endpoint(0);
     9b8:	81 e0       	ldi	r24, 0x01	; 1
     9ba:	80 93 ea 00 	sts	0x00EA, r24
     9be:	10 92 ea 00 	sts	0x00EA, r1
      usb_configuration_nb=0;
     9c2:	10 92 19 01 	sts	0x0119, r1
   }

   // Here connection to the device enumeration process
   Usb_select_endpoint(EP_CONTROL);
     9c6:	10 92 e9 00 	sts	0x00E9, r1
   if (Is_usb_receive_setup())
     9ca:	80 91 e8 00 	lds	r24, 0x00E8
     9ce:	83 ff       	sbrs	r24, 3
     9d0:	08 c0       	rjmp	.+16     	; 0x9e2 <usb_device_task+0xc0>
   {
      usb_process_request();
     9d2:	0e 94 e7 00 	call	0x1ce	; 0x1ce <usb_process_request>
     9d6:	08 95       	ret
      Usb_vbus_on_action();
      Usb_enable();
      usb_start_device();
      Usb_attach();
   }
   if (Is_usb_vbus_low()&& (usb_connected==TRUE))
     9d8:	80 91 08 01 	lds	r24, 0x0108
     9dc:	81 30       	cpi	r24, 0x01	; 1
     9de:	e9 f6       	brne	.-70     	; 0x99a <usb_device_task+0x78>
     9e0:	c5 cf       	rjmp	.-118    	; 0x96c <usb_device_task+0x4a>
     9e2:	08 95       	ret

000009e4 <usb_config_ep>:
//!
//! @return Is_endpoint_configured.
//!
U8 usb_config_ep(U8 config0, U8 config1)
{
    Usb_enable_endpoint();
     9e4:	eb ee       	ldi	r30, 0xEB	; 235
     9e6:	f0 e0       	ldi	r31, 0x00	; 0
     9e8:	90 81       	ld	r25, Z
     9ea:	91 60       	ori	r25, 0x01	; 1
     9ec:	90 83       	st	Z, r25
    UECFG0X = config0;
     9ee:	80 93 ec 00 	sts	0x00EC, r24
    UECFG1X = (UECFG1X & (1<<ALLOC)) | config1;
     9f2:	ed ee       	ldi	r30, 0xED	; 237
     9f4:	f0 e0       	ldi	r31, 0x00	; 0
     9f6:	80 81       	ld	r24, Z
     9f8:	82 70       	andi	r24, 0x02	; 2
     9fa:	68 2b       	or	r22, r24
     9fc:	60 83       	st	Z, r22
    Usb_allocate_memory();
     9fe:	80 81       	ld	r24, Z
     a00:	82 60       	ori	r24, 0x02	; 2
     a02:	80 83       	st	Z, r24
    return (Is_endpoint_configured());
     a04:	80 91 ee 00 	lds	r24, 0x00EE
}
     a08:	88 1f       	adc	r24, r24
     a0a:	88 27       	eor	r24, r24
     a0c:	88 1f       	adc	r24, r24
     a0e:	08 95       	ret

00000a10 <usb_select_enpoint_interrupt>:
{
U8 interrupt_flags;
U8 ep_num;

   ep_num = 0;
   interrupt_flags = Usb_interrupt_flags();
     a10:	90 91 f4 00 	lds	r25, 0x00F4
U8 usb_select_enpoint_interrupt(void)
{
U8 interrupt_flags;
U8 ep_num;

   ep_num = 0;
     a14:	80 e0       	ldi	r24, 0x00	; 0
   interrupt_flags = Usb_interrupt_flags();

   while(ep_num < MAX_EP_NB)
   {
      if (interrupt_flags & 1)
     a16:	90 fd       	sbrc	r25, 0
     a18:	06 c0       	rjmp	.+12     	; 0xa26 <usb_select_enpoint_interrupt+0x16>
      {
         return (ep_num);
      }
      else
      {
         ep_num++;
     a1a:	8f 5f       	subi	r24, 0xFF	; 255
U8 ep_num;

   ep_num = 0;
   interrupt_flags = Usb_interrupt_flags();

   while(ep_num < MAX_EP_NB)
     a1c:	87 30       	cpi	r24, 0x07	; 7
     a1e:	11 f0       	breq	.+4      	; 0xa24 <usb_select_enpoint_interrupt+0x14>
         return (ep_num);
      }
      else
      {
         ep_num++;
         interrupt_flags = interrupt_flags >> 1;
     a20:	96 95       	lsr	r25
     a22:	f9 cf       	rjmp	.-14     	; 0xa16 <usb_select_enpoint_interrupt+0x6>
      }
   }
   return 0;
     a24:	80 e0       	ldi	r24, 0x00	; 0
}
     a26:	08 95       	ret

00000a28 <usb_send_packet>:
//!
//! Note:
//! tbuf is incremented of 'data_length'.
//!
U8 usb_send_packet(U8 ep_num, U8* tbuf, U8 data_length)
{
     a28:	fb 01       	movw	r30, r22
U8 remaining_length;

   remaining_length = data_length;
   Usb_select_endpoint(ep_num);
     a2a:	80 93 e9 00 	sts	0x00E9, r24
//!
U8 usb_send_packet(U8 ep_num, U8* tbuf, U8 data_length)
{
U8 remaining_length;

   remaining_length = data_length;
     a2e:	84 2f       	mov	r24, r20
   Usb_select_endpoint(ep_num);
   while(Is_usb_write_enabled() && (0 != remaining_length))
     a30:	04 c0       	rjmp	.+8      	; 0xa3a <usb_send_packet+0x12>
   {
      Usb_write_byte(*tbuf);
     a32:	91 91       	ld	r25, Z+
     a34:	90 93 f1 00 	sts	0x00F1, r25
      remaining_length--;
     a38:	81 50       	subi	r24, 0x01	; 1
{
U8 remaining_length;

   remaining_length = data_length;
   Usb_select_endpoint(ep_num);
   while(Is_usb_write_enabled() && (0 != remaining_length))
     a3a:	90 91 e8 00 	lds	r25, 0x00E8
     a3e:	95 ff       	sbrs	r25, 5
     a40:	02 c0       	rjmp	.+4      	; 0xa46 <usb_send_packet+0x1e>
     a42:	88 23       	and	r24, r24
     a44:	b1 f7       	brne	.-20     	; 0xa32 <usb_send_packet+0xa>
      Usb_write_byte(*tbuf);
      remaining_length--;
      tbuf++;
   }
   return remaining_length;
}
     a46:	08 95       	ret

00000a48 <usb_read_packet>:
//!
//! Note:
//! rbuf is incremented of 'data_length'.
//!
U8 usb_read_packet(U8 ep_num, U8* rbuf, U8  data_length)
{
     a48:	fb 01       	movw	r30, r22
U8 remaining_length;

   remaining_length = data_length;
   Usb_select_endpoint(ep_num);
     a4a:	80 93 e9 00 	sts	0x00E9, r24
//!
U8 usb_read_packet(U8 ep_num, U8* rbuf, U8  data_length)
{
U8 remaining_length;

   remaining_length = data_length;
     a4e:	84 2f       	mov	r24, r20
   Usb_select_endpoint(ep_num);

   while(Is_usb_read_enabled() && (0 != remaining_length))
     a50:	04 c0       	rjmp	.+8      	; 0xa5a <usb_read_packet+0x12>
   {
      *rbuf = Usb_read_byte();
     a52:	90 91 f1 00 	lds	r25, 0x00F1
     a56:	91 93       	st	Z+, r25
      remaining_length--;
     a58:	81 50       	subi	r24, 0x01	; 1
U8 remaining_length;

   remaining_length = data_length;
   Usb_select_endpoint(ep_num);

   while(Is_usb_read_enabled() && (0 != remaining_length))
     a5a:	90 91 e8 00 	lds	r25, 0x00E8
     a5e:	95 ff       	sbrs	r25, 5
     a60:	02 c0       	rjmp	.+4      	; 0xa66 <usb_read_packet+0x1e>
     a62:	88 23       	and	r24, r24
     a64:	b1 f7       	brne	.-20     	; 0xa52 <usb_read_packet+0xa>
      *rbuf = Usb_read_byte();
      remaining_length--;
      rbuf++;
   }
   return remaining_length;
}
     a66:	08 95       	ret

00000a68 <usb_halt_endpoint>:
//!
//! @return none
//!
void usb_halt_endpoint (U8 ep_num)
{
   Usb_select_endpoint(ep_num);
     a68:	80 93 e9 00 	sts	0x00E9, r24
   Usb_enable_stall_handshake();
     a6c:	eb ee       	ldi	r30, 0xEB	; 235
     a6e:	f0 e0       	ldi	r31, 0x00	; 0
     a70:	80 81       	ld	r24, Z
     a72:	80 62       	ori	r24, 0x20	; 32
     a74:	80 83       	st	Z, r24
}
     a76:	08 95       	ret

00000a78 <usb_init_device>:
//!
//! @return status
//!
U8 usb_init_device (void)
{
      Usb_select_endpoint(EP_CONTROL);
     a78:	10 92 e9 00 	sts	0x00E9, r1
      if(!Is_usb_endpoint_enabled())
     a7c:	80 91 eb 00 	lds	r24, 0x00EB
     a80:	80 ff       	sbrs	r24, 0
     a82:	02 c0       	rjmp	.+4      	; 0xa88 <usb_init_device+0x10>
                                ONE_BANK,      \
                                NYET_DISABLED);

#endif         
      }
   return FALSE;
     a84:	80 e0       	ldi	r24, 0x00	; 0
}
     a86:	08 95       	ret
{
      Usb_select_endpoint(EP_CONTROL);
      if(!Is_usb_endpoint_enabled())
      {
#if (USB_LOW_SPEED_DEVICE==DISABLE)
         return usb_configure_endpoint(EP_CONTROL,    \
     a88:	10 92 e9 00 	sts	0x00E9, r1
     a8c:	82 e0       	ldi	r24, 0x02	; 2
     a8e:	60 e2       	ldi	r22, 0x20	; 32
     a90:	0e 94 f2 04 	call	0x9e4	; 0x9e4 <usb_config_ep>
     a94:	08 95       	ret

00000a96 <usb_user_endpoint_init>:
//! @brief This function configures the endpoints
//!
//! @param conf_nb configuration number choosed by USB host
//!
void usb_user_endpoint_init(U8 conf_nb)
{
     a96:	cf 93       	push	r28
     a98:	df 93       	push	r29
   usb_configure_endpoint( EP_HID_IN,   \
     a9a:	c9 ee       	ldi	r28, 0xE9	; 233
     a9c:	d0 e0       	ldi	r29, 0x00	; 0
     a9e:	81 e0       	ldi	r24, 0x01	; 1
     aa0:	88 83       	st	Y, r24
     aa2:	81 ec       	ldi	r24, 0xC1	; 193
     aa4:	60 e3       	ldi	r22, 0x30	; 48
     aa6:	0e 94 f2 04 	call	0x9e4	; 0x9e4 <usb_config_ep>
                           DIRECTION_IN,  \
                           SIZE_64,        \
                           ONE_BANK,      \
                           NYET_ENABLED);

   usb_configure_endpoint( EP_HID_OUT,    \
     aaa:	82 e0       	ldi	r24, 0x02	; 2
     aac:	88 83       	st	Y, r24
     aae:	80 ec       	ldi	r24, 0xC0	; 192
     ab0:	60 e3       	ldi	r22, 0x30	; 48
     ab2:	0e 94 f2 04 	call	0x9e4	; 0x9e4 <usb_config_ep>
                           TYPE_INTERRUPT,\
                           DIRECTION_OUT, \
                           SIZE_64,        \
                           ONE_BANK,      \
                           NYET_ENABLED);
}
     ab6:	df 91       	pop	r29
     ab8:	cf 91       	pop	r28
     aba:	08 95       	ret

00000abc <usb_user_interface_get>:
//! @return alternate setting configurated
//!
U8   usb_user_interface_get( U16 wInterface )
{
   return 0;  // Only one alternate setting possible for all interface
}
     abc:	80 e0       	ldi	r24, 0x00	; 0
     abe:	08 95       	ret

00000ac0 <usb_user_interface_reset>:
//! @param alternate_setting  alternate setting selected
//!
void usb_user_interface_reset(U16 wInterface, U8 alternate_setting)
{  
   // default setting selected = reset data toggle
   if( INTERFACE_NB == wInterface )
     ac0:	00 97       	sbiw	r24, 0x00	; 0
     ac2:	19 f5       	brne	.+70     	; 0xb0a <__stack+0xb>
   {
      // Interface HID
      Usb_select_endpoint(EP_HID_IN);
     ac4:	81 e0       	ldi	r24, 0x01	; 1
     ac6:	80 93 e9 00 	sts	0x00E9, r24
      Usb_disable_stall_handshake();
     aca:	80 91 eb 00 	lds	r24, 0x00EB
     ace:	80 61       	ori	r24, 0x10	; 16
     ad0:	80 93 eb 00 	sts	0x00EB, r24
      Usb_reset_endpoint(EP_HID_IN);
     ad4:	92 e0       	ldi	r25, 0x02	; 2
     ad6:	90 93 ea 00 	sts	0x00EA, r25
     ada:	10 92 ea 00 	sts	0x00EA, r1
      Usb_reset_data_toggle();
     ade:	80 91 eb 00 	lds	r24, 0x00EB
     ae2:	88 60       	ori	r24, 0x08	; 8
     ae4:	80 93 eb 00 	sts	0x00EB, r24
      Usb_select_endpoint(EP_HID_OUT);
     ae8:	90 93 e9 00 	sts	0x00E9, r25
      Usb_disable_stall_handshake();
     aec:	80 91 eb 00 	lds	r24, 0x00EB
     af0:	80 61       	ori	r24, 0x10	; 16
     af2:	80 93 eb 00 	sts	0x00EB, r24
      Usb_reset_endpoint(EP_HID_OUT);
     af6:	84 e0       	ldi	r24, 0x04	; 4
     af8:	80 93 ea 00 	sts	0x00EA, r24
     afc:	10 92 ea 00 	sts	0x00EA, r1
      Usb_reset_data_toggle();
     b00:	80 91 eb 00 	lds	r24, 0x00EB
     b04:	88 60       	ori	r24, 0x08	; 8
     b06:	80 93 eb 00 	sts	0x00EB, r24
     b0a:	08 95       	ret

00000b0c <usb_user_get_descriptor>:
//!
//! @return FALSE, if the global descriptor no filled
//!
Bool usb_user_get_descriptor(U8 type, U8 string)
{
   switch(type)
     b0c:	83 30       	cpi	r24, 0x03	; 3
     b0e:	f1 f4       	brne	.+60     	; 0xb4c <usb_user_get_descriptor+0x40>
   {
      case DESCRIPTOR_STRING:
      switch (string)
     b10:	61 30       	cpi	r22, 0x01	; 1
     b12:	59 f0       	breq	.+22     	; 0xb2a <usb_user_get_descriptor+0x1e>
     b14:	61 30       	cpi	r22, 0x01	; 1
     b16:	18 f0       	brcs	.+6      	; 0xb1e <usb_user_get_descriptor+0x12>
     b18:	62 30       	cpi	r22, 0x02	; 2
     b1a:	d1 f4       	brne	.+52     	; 0xb50 <usb_user_get_descriptor+0x44>
     b1c:	0c c0       	rjmp	.+24     	; 0xb36 <usb_user_get_descriptor+0x2a>
      {
         case LANG_ID:
         data_to_transfer = sizeof (usb_user_language_id);
     b1e:	84 e0       	ldi	r24, 0x04	; 4
     b20:	80 93 1a 01 	sts	0x011A, r24
         pbuffer = &(usb_user_language_id.bLength);
     b24:	85 e1       	ldi	r24, 0x15	; 21
     b26:	91 e0       	ldi	r25, 0x01	; 1
     b28:	0b c0       	rjmp	.+22     	; 0xb40 <usb_user_get_descriptor+0x34>
         return TRUE;
         break;
        
         case MAN_INDEX:
         data_to_transfer = sizeof (usb_user_manufacturer_string_descriptor);
     b2a:	8c e0       	ldi	r24, 0x0C	; 12
     b2c:	80 93 1a 01 	sts	0x011A, r24
         pbuffer = &(usb_user_manufacturer_string_descriptor.bLength);
     b30:	87 ee       	ldi	r24, 0xE7	; 231
     b32:	90 e0       	ldi	r25, 0x00	; 0
     b34:	05 c0       	rjmp	.+10     	; 0xb40 <usb_user_get_descriptor+0x34>
         return TRUE;
         break;
        
         case PROD_INDEX:
         data_to_transfer = sizeof (usb_user_product_string_descriptor);
     b36:	82 e2       	ldi	r24, 0x22	; 34
     b38:	80 93 1a 01 	sts	0x011A, r24
         pbuffer = &(usb_user_product_string_descriptor.bLength);
     b3c:	83 ef       	ldi	r24, 0xF3	; 243
     b3e:	90 e0       	ldi	r25, 0x00	; 0
     b40:	90 93 1c 01 	sts	0x011C, r25
     b44:	80 93 1b 01 	sts	0x011B, r24
         return TRUE;
     b48:	81 e0       	ldi	r24, 0x01	; 1
     b4a:	08 95       	ret
         break;
#endif
      }
      break;
   }
   return FALSE;
     b4c:	80 e0       	ldi	r24, 0x00	; 0
     b4e:	08 95       	ret
     b50:	80 e0       	ldi	r24, 0x00	; 0
}
     b52:	08 95       	ret

00000b54 <hid_get_report_descriptor>:


//! @brief This function manages hit get repport request.
//!
void hid_get_report_descriptor(void)
{
     b54:	df 93       	push	r29
     b56:	cf 93       	push	r28
     b58:	00 d0       	rcall	.+0      	; 0xb5a <hid_get_report_descriptor+0x6>
     b5a:	00 d0       	rcall	.+0      	; 0xb5c <hid_get_report_descriptor+0x8>
     b5c:	cd b7       	in	r28, 0x3d	; 61
     b5e:	de b7       	in	r29, 0x3e	; 62
   U16 wLength;
   U8  nb_byte;
   bit zlp = FALSE;
   U16 wInterface;

   LSB(wInterface)=Usb_read_byte();
     b60:	80 91 f1 00 	lds	r24, 0x00F1
     b64:	8b 83       	std	Y+3, r24	; 0x03
   MSB(wInterface)=Usb_read_byte();
     b66:	80 91 f1 00 	lds	r24, 0x00F1
     b6a:	8c 83       	std	Y+4, r24	; 0x04

   data_to_transfer = sizeof(usb_hid_report_descriptor);
     b6c:	85 e3       	ldi	r24, 0x35	; 53
     b6e:	80 93 1a 01 	sts	0x011A, r24
   pbuffer = &(usb_hid_report_descriptor.report[0]);
     b72:	89 e1       	ldi	r24, 0x19	; 25
     b74:	91 e0       	ldi	r25, 0x01	; 1
     b76:	90 93 1c 01 	sts	0x011C, r25
     b7a:	80 93 1b 01 	sts	0x011B, r24

   LSB(wLength) = Usb_read_byte();
     b7e:	80 91 f1 00 	lds	r24, 0x00F1
     b82:	89 83       	std	Y+1, r24	; 0x01
   MSB(wLength) = Usb_read_byte();
     b84:	80 91 f1 00 	lds	r24, 0x00F1
     b88:	8a 83       	std	Y+2, r24	; 0x02
   Usb_ack_receive_setup();
     b8a:	80 91 e8 00 	lds	r24, 0x00E8
     b8e:	87 7f       	andi	r24, 0xF7	; 247
     b90:	80 93 e8 00 	sts	0x00E8, r24

   if (wLength > data_to_transfer)
     b94:	89 81       	ldd	r24, Y+1	; 0x01
     b96:	9a 81       	ldd	r25, Y+2	; 0x02
     b98:	86 33       	cpi	r24, 0x36	; 54
     b9a:	91 05       	cpc	r25, r1
     b9c:	28 f5       	brcc	.+74     	; 0xbe8 <hid_get_report_descriptor+0x94>
      if ((data_to_transfer % EP_CONTROL_LENGTH) == 0) { zlp = TRUE; }
      else { zlp = FALSE; }
   }
   else
   {
      data_to_transfer = (U8)wLength;           // send only requested number of data
     b9e:	80 93 1a 01 	sts	0x011A, r24
     ba2:	22 c0       	rjmp	.+68     	; 0xbe8 <hid_get_report_descriptor+0x94>
   }

   while((data_to_transfer != 0) && (!Is_usb_receive_out()))
   {
      while(!Is_usb_read_control_enabled());
     ba4:	80 91 e8 00 	lds	r24, 0x00E8
     ba8:	80 ff       	sbrs	r24, 0
     baa:	fc cf       	rjmp	.-8      	; 0xba4 <hid_get_report_descriptor+0x50>
     bac:	20 e0       	ldi	r18, 0x00	; 0
     bae:	13 c0       	rjmp	.+38     	; 0xbd6 <hid_get_report_descriptor+0x82>

      nb_byte=0;
      while(data_to_transfer != 0)              // Send data until necessary
      {
         if(nb_byte++==EP_CONTROL_LENGTH)       // Check endpoint 0 size
     bb0:	20 32       	cpi	r18, 0x20	; 32
     bb2:	a9 f0       	breq	.+42     	; 0xbde <hid_get_report_descriptor+0x8a>
     bb4:	2f 5f       	subi	r18, 0xFF	; 255
            break;
         }
#ifndef __GNUC__
         Usb_write_byte(*pbuffer++);
#else    // AVRGCC does not support point to PGM space
         Usb_write_byte(pgm_read_byte_near((unsigned int)pbuffer++));
     bb6:	e0 91 1b 01 	lds	r30, 0x011B
     bba:	f0 91 1c 01 	lds	r31, 0x011C
     bbe:	cf 01       	movw	r24, r30
     bc0:	01 96       	adiw	r24, 0x01	; 1
     bc2:	90 93 1c 01 	sts	0x011C, r25
     bc6:	80 93 1b 01 	sts	0x011B, r24
     bca:	e4 91       	lpm	r30, Z+
     bcc:	e0 93 f1 00 	sts	0x00F1, r30
#endif
         data_to_transfer --;
     bd0:	31 50       	subi	r19, 0x01	; 1
     bd2:	30 93 1a 01 	sts	0x011A, r19
   while((data_to_transfer != 0) && (!Is_usb_receive_out()))
   {
      while(!Is_usb_read_control_enabled());

      nb_byte=0;
      while(data_to_transfer != 0)              // Send data until necessary
     bd6:	30 91 1a 01 	lds	r19, 0x011A
     bda:	33 23       	and	r19, r19
     bdc:	49 f7       	brne	.-46     	; 0xbb0 <hid_get_report_descriptor+0x5c>
#else    // AVRGCC does not support point to PGM space
         Usb_write_byte(pgm_read_byte_near((unsigned int)pbuffer++));
#endif
         data_to_transfer --;
      }
      Usb_send_control_in();
     bde:	80 91 e8 00 	lds	r24, 0x00E8
     be2:	8e 7f       	andi	r24, 0xFE	; 254
     be4:	80 93 e8 00 	sts	0x00E8, r24
   else
   {
      data_to_transfer = (U8)wLength;           // send only requested number of data
   }

   while((data_to_transfer != 0) && (!Is_usb_receive_out()))
     be8:	80 91 1a 01 	lds	r24, 0x011A
     bec:	88 23       	and	r24, r24
     bee:	21 f0       	breq	.+8      	; 0xbf8 <hid_get_report_descriptor+0xa4>
     bf0:	80 91 e8 00 	lds	r24, 0x00E8
     bf4:	82 ff       	sbrs	r24, 2
     bf6:	d6 cf       	rjmp	.-84     	; 0xba4 <hid_get_report_descriptor+0x50>
   { 
      while(!Is_usb_read_control_enabled());
      Usb_send_control_in();
   }

   while(!Is_usb_receive_out());
     bf8:	80 91 e8 00 	lds	r24, 0x00E8
     bfc:	82 ff       	sbrs	r24, 2
     bfe:	fc cf       	rjmp	.-8      	; 0xbf8 <hid_get_report_descriptor+0xa4>
   Usb_ack_receive_out();
     c00:	80 91 e8 00 	lds	r24, 0x00E8
     c04:	8b 7f       	andi	r24, 0xFB	; 251
     c06:	80 93 e8 00 	sts	0x00E8, r24
     c0a:	80 91 e8 00 	lds	r24, 0x00E8
     c0e:	8f 77       	andi	r24, 0x7F	; 127
     c10:	80 93 e8 00 	sts	0x00E8, r24
}
     c14:	0f 90       	pop	r0
     c16:	0f 90       	pop	r0
     c18:	0f 90       	pop	r0
     c1a:	0f 90       	pop	r0
     c1c:	cf 91       	pop	r28
     c1e:	df 91       	pop	r29
     c20:	08 95       	ret

00000c22 <usb_hid_set_report_ouput>:

//! @brief This function manages hit set report request.
//!
void usb_hid_set_report_ouput (void)
{
   Usb_ack_receive_setup();
     c22:	80 91 e8 00 	lds	r24, 0x00E8
     c26:	87 7f       	andi	r24, 0xF7	; 247
     c28:	80 93 e8 00 	sts	0x00E8, r24
   Usb_send_control_in();
     c2c:	80 91 e8 00 	lds	r24, 0x00E8
     c30:	8e 7f       	andi	r24, 0xFE	; 254
     c32:	80 93 e8 00 	sts	0x00E8, r24

   while(!Is_usb_receive_out());
     c36:	80 91 e8 00 	lds	r24, 0x00E8
     c3a:	82 ff       	sbrs	r24, 2
     c3c:	fc cf       	rjmp	.-8      	; 0xc36 <usb_hid_set_report_ouput+0x14>
   Usb_ack_receive_out();
     c3e:	80 91 e8 00 	lds	r24, 0x00E8
     c42:	8b 7f       	andi	r24, 0xFB	; 251
     c44:	80 93 e8 00 	sts	0x00E8, r24
     c48:	80 91 e8 00 	lds	r24, 0x00E8
     c4c:	8f 77       	andi	r24, 0x7F	; 127
     c4e:	80 93 e8 00 	sts	0x00E8, r24
   Usb_send_control_in();
     c52:	80 91 e8 00 	lds	r24, 0x00E8
     c56:	8e 7f       	andi	r24, 0xFE	; 254
     c58:	80 93 e8 00 	sts	0x00E8, r24
}
     c5c:	08 95       	ret

00000c5e <usb_hid_set_idle>:
//!
//! @param Duration     When the upper byte of wValue is 0 (zero), the duration is indefinite else from 0.004 to 1.020 seconds
//! @param Report ID    0 the idle rate applies to all input reports, else only applies to the Report ID
//!
void usb_hid_set_idle (U8 u8_report_id, U8 u8_duration )
{
     c5e:	df 93       	push	r29
     c60:	cf 93       	push	r28
     c62:	00 d0       	rcall	.+0      	; 0xc64 <usb_hid_set_idle+0x6>
     c64:	cd b7       	in	r28, 0x3d	; 61
     c66:	de b7       	in	r29, 0x3e	; 62
   U16 wInterface;
   
   // Get interface number to put in idle mode
   LSB(wInterface)=Usb_read_byte();
     c68:	80 91 f1 00 	lds	r24, 0x00F1
     c6c:	89 83       	std	Y+1, r24	; 0x01
   MSB(wInterface)=Usb_read_byte();
     c6e:	80 91 f1 00 	lds	r24, 0x00F1
     c72:	8a 83       	std	Y+2, r24	; 0x02
   Usb_ack_receive_setup();
     c74:	80 91 e8 00 	lds	r24, 0x00E8
     c78:	87 7f       	andi	r24, 0xF7	; 247
     c7a:	80 93 e8 00 	sts	0x00E8, r24
  
   g_u8_report_rate = u8_duration;
     c7e:	60 93 0b 01 	sts	0x010B, r22
   
   Usb_send_control_in();
     c82:	80 91 e8 00 	lds	r24, 0x00E8
     c86:	8e 7f       	andi	r24, 0xFE	; 254
     c88:	80 93 e8 00 	sts	0x00E8, r24
   while(!Is_usb_in_ready());
     c8c:	80 91 e8 00 	lds	r24, 0x00E8
     c90:	80 ff       	sbrs	r24, 0
     c92:	fc cf       	rjmp	.-8      	; 0xc8c <usb_hid_set_idle+0x2e>
}
     c94:	0f 90       	pop	r0
     c96:	0f 90       	pop	r0
     c98:	cf 91       	pop	r28
     c9a:	df 91       	pop	r29
     c9c:	08 95       	ret

00000c9e <usb_hid_get_idle>:
//! @brief This function manages hid get idle request.
//!
//! @param Report ID    0 the idle rate applies to all input reports, else only applies to the Report ID
//!
void usb_hid_get_idle (U8 u8_report_id)
{
     c9e:	df 93       	push	r29
     ca0:	cf 93       	push	r28
     ca2:	00 d0       	rcall	.+0      	; 0xca4 <usb_hid_get_idle+0x6>
     ca4:	00 d0       	rcall	.+0      	; 0xca6 <usb_hid_get_idle+0x8>
     ca6:	cd b7       	in	r28, 0x3d	; 61
     ca8:	de b7       	in	r29, 0x3e	; 62
   U16 wLength;
   U16 wInterface;

   // Get interface number to put in idle mode
   LSB(wInterface)= Usb_read_byte();
     caa:	80 91 f1 00 	lds	r24, 0x00F1
     cae:	8b 83       	std	Y+3, r24	; 0x03
   MSB(wInterface)= Usb_read_byte();
     cb0:	80 91 f1 00 	lds	r24, 0x00F1
     cb4:	8c 83       	std	Y+4, r24	; 0x04
   LSB(wLength)   = Usb_read_byte();
     cb6:	80 91 f1 00 	lds	r24, 0x00F1
     cba:	89 83       	std	Y+1, r24	; 0x01
   MSB(wLength)   = Usb_read_byte();
     cbc:	80 91 f1 00 	lds	r24, 0x00F1
     cc0:	8a 83       	std	Y+2, r24	; 0x02
   Usb_ack_receive_setup();
     cc2:	80 91 e8 00 	lds	r24, 0x00E8
     cc6:	87 7f       	andi	r24, 0xF7	; 247
     cc8:	80 93 e8 00 	sts	0x00E8, r24
   
   if( wLength != 0 )
     ccc:	89 81       	ldd	r24, Y+1	; 0x01
     cce:	9a 81       	ldd	r25, Y+2	; 0x02
     cd0:	00 97       	sbiw	r24, 0x00	; 0
     cd2:	49 f0       	breq	.+18     	; 0xce6 <usb_hid_get_idle+0x48>
   {
      Usb_write_byte(g_u8_report_rate);
     cd4:	80 91 0b 01 	lds	r24, 0x010B
     cd8:	80 93 f1 00 	sts	0x00F1, r24
      Usb_send_control_in();
     cdc:	80 91 e8 00 	lds	r24, 0x00E8
     ce0:	8e 7f       	andi	r24, 0xFE	; 254
     ce2:	80 93 e8 00 	sts	0x00E8, r24
   }
   
   while(!Is_usb_receive_out());
     ce6:	80 91 e8 00 	lds	r24, 0x00E8
     cea:	82 ff       	sbrs	r24, 2
     cec:	fc cf       	rjmp	.-8      	; 0xce6 <usb_hid_get_idle+0x48>
   Usb_ack_receive_out();
     cee:	80 91 e8 00 	lds	r24, 0x00E8
     cf2:	8b 7f       	andi	r24, 0xFB	; 251
     cf4:	80 93 e8 00 	sts	0x00E8, r24
     cf8:	80 91 e8 00 	lds	r24, 0x00E8
     cfc:	8f 77       	andi	r24, 0x7F	; 127
     cfe:	80 93 e8 00 	sts	0x00E8, r24
}
     d02:	0f 90       	pop	r0
     d04:	0f 90       	pop	r0
     d06:	0f 90       	pop	r0
     d08:	0f 90       	pop	r0
     d0a:	cf 91       	pop	r28
     d0c:	df 91       	pop	r29
     d0e:	08 95       	ret

00000d10 <usb_hid_set_report_feature>:

void usb_hid_set_report_feature(void)
{

   Usb_ack_receive_setup();
     d10:	80 91 e8 00 	lds	r24, 0x00E8
     d14:	87 7f       	andi	r24, 0xF7	; 247
     d16:	80 93 e8 00 	sts	0x00E8, r24
   Usb_send_control_in();
     d1a:	80 91 e8 00 	lds	r24, 0x00E8
     d1e:	8e 7f       	andi	r24, 0xFE	; 254
     d20:	80 93 e8 00 	sts	0x00E8, r24

   while(!Is_usb_receive_out());
     d24:	80 91 e8 00 	lds	r24, 0x00E8
     d28:	82 ff       	sbrs	r24, 2
     d2a:	fc cf       	rjmp	.-8      	; 0xd24 <usb_hid_set_report_feature+0x14>

   if(Usb_read_byte()==0x55)
     d2c:	80 91 f1 00 	lds	r24, 0x00F1
     d30:	85 35       	cpi	r24, 0x55	; 85
     d32:	79 f4       	brne	.+30     	; 0xd52 <usb_hid_set_report_feature+0x42>
      if(Usb_read_byte()==0xAA)
     d34:	80 91 f1 00 	lds	r24, 0x00F1
     d38:	8a 3a       	cpi	r24, 0xAA	; 170
     d3a:	59 f4       	brne	.+22     	; 0xd52 <usb_hid_set_report_feature+0x42>
         if(Usb_read_byte()==0x55)
     d3c:	80 91 f1 00 	lds	r24, 0x00F1
     d40:	85 35       	cpi	r24, 0x55	; 85
     d42:	39 f4       	brne	.+14     	; 0xd52 <usb_hid_set_report_feature+0x42>
            if(Usb_read_byte()==0xAA)
     d44:	80 91 f1 00 	lds	r24, 0x00F1
     d48:	8a 3a       	cpi	r24, 0xAA	; 170
     d4a:	19 f4       	brne	.+6      	; 0xd52 <usb_hid_set_report_feature+0x42>
            {
               jump_bootloader=1;
     d4c:	81 e0       	ldi	r24, 0x01	; 1
     d4e:	80 93 0a 01 	sts	0x010A, r24
            }
   Usb_ack_receive_out();
     d52:	80 91 e8 00 	lds	r24, 0x00E8
     d56:	8b 7f       	andi	r24, 0xFB	; 251
     d58:	80 93 e8 00 	sts	0x00E8, r24
     d5c:	80 91 e8 00 	lds	r24, 0x00E8
     d60:	8f 77       	andi	r24, 0x7F	; 127
     d62:	80 93 e8 00 	sts	0x00E8, r24
   Usb_send_control_in();
     d66:	80 91 e8 00 	lds	r24, 0x00E8
     d6a:	8e 7f       	andi	r24, 0xFE	; 254
     d6c:	80 93 e8 00 	sts	0x00E8, r24
   while(!Is_usb_in_ready());
     d70:	80 91 e8 00 	lds	r24, 0x00E8
     d74:	80 ff       	sbrs	r24, 0
     d76:	fc cf       	rjmp	.-8      	; 0xd70 <usb_hid_set_report_feature+0x60>
}
     d78:	08 95       	ret

00000d7a <hid_get_hid_descriptor>:

//! @brief This function manages hid get hid descriptor request.
//!
void hid_get_hid_descriptor(void)
{
     d7a:	df 93       	push	r29
     d7c:	cf 93       	push	r28
     d7e:	00 d0       	rcall	.+0      	; 0xd80 <hid_get_hid_descriptor+0x6>
     d80:	00 d0       	rcall	.+0      	; 0xd82 <hid_get_hid_descriptor+0x8>
     d82:	cd b7       	in	r28, 0x3d	; 61
     d84:	de b7       	in	r29, 0x3e	; 62
   U16 wLength;
   U8  nb_byte;
   bit zlp=FALSE;
   U16 wInterface;

   LSB(wInterface)=Usb_read_byte();
     d86:	80 91 f1 00 	lds	r24, 0x00F1
     d8a:	8b 83       	std	Y+3, r24	; 0x03
   MSB(wInterface)=Usb_read_byte();
     d8c:	80 91 f1 00 	lds	r24, 0x00F1
     d90:	8c 83       	std	Y+4, r24	; 0x04

   data_to_transfer = sizeof(usb_conf_desc.hid);
     d92:	89 e0       	ldi	r24, 0x09	; 9
     d94:	80 93 1a 01 	sts	0x011A, r24
   pbuffer = &(usb_conf_desc.hid.bLength);
     d98:	80 ed       	ldi	r24, 0xD0	; 208
     d9a:	90 e0       	ldi	r25, 0x00	; 0
     d9c:	90 93 1c 01 	sts	0x011C, r25
     da0:	80 93 1b 01 	sts	0x011B, r24

   LSB(wLength) = Usb_read_byte();
     da4:	80 91 f1 00 	lds	r24, 0x00F1
     da8:	89 83       	std	Y+1, r24	; 0x01
   MSB(wLength) = Usb_read_byte();
     daa:	80 91 f1 00 	lds	r24, 0x00F1
     dae:	8a 83       	std	Y+2, r24	; 0x02
   Usb_ack_receive_setup();
     db0:	80 91 e8 00 	lds	r24, 0x00E8
     db4:	87 7f       	andi	r24, 0xF7	; 247
     db6:	80 93 e8 00 	sts	0x00E8, r24

   if (wLength > data_to_transfer)
     dba:	89 81       	ldd	r24, Y+1	; 0x01
     dbc:	9a 81       	ldd	r25, Y+2	; 0x02
     dbe:	8a 30       	cpi	r24, 0x0A	; 10
     dc0:	91 05       	cpc	r25, r1
     dc2:	28 f5       	brcc	.+74     	; 0xe0e <hid_get_hid_descriptor+0x94>
      if ((data_to_transfer % EP_CONTROL_LENGTH) == 0) { zlp = TRUE; }
      else { zlp = FALSE; }                     // no need of zero length packet
   }
   else
   {
      data_to_transfer = (U8)wLength;           // send only requested number of data
     dc4:	80 93 1a 01 	sts	0x011A, r24
     dc8:	22 c0       	rjmp	.+68     	; 0xe0e <hid_get_hid_descriptor+0x94>
   }

   while((data_to_transfer != 0) && (!Is_usb_receive_out()))
   {
      while(!Is_usb_read_control_enabled());
     dca:	80 91 e8 00 	lds	r24, 0x00E8
     dce:	80 ff       	sbrs	r24, 0
     dd0:	fc cf       	rjmp	.-8      	; 0xdca <hid_get_hid_descriptor+0x50>
     dd2:	20 e0       	ldi	r18, 0x00	; 0
     dd4:	13 c0       	rjmp	.+38     	; 0xdfc <hid_get_hid_descriptor+0x82>

      nb_byte=0;
      while(data_to_transfer != 0)              // Send data until necessary
      {
         if(nb_byte++==EP_CONTROL_LENGTH)       // Check endpoint 0 size
     dd6:	20 32       	cpi	r18, 0x20	; 32
     dd8:	a9 f0       	breq	.+42     	; 0xe04 <hid_get_hid_descriptor+0x8a>
     dda:	2f 5f       	subi	r18, 0xFF	; 255
            break;
         }
#ifndef __GNUC__
         Usb_write_byte(*pbuffer++);
#else    // AVRGCC does not support point to PGM space
         Usb_write_byte(pgm_read_byte_near((unsigned int)pbuffer++));
     ddc:	e0 91 1b 01 	lds	r30, 0x011B
     de0:	f0 91 1c 01 	lds	r31, 0x011C
     de4:	cf 01       	movw	r24, r30
     de6:	01 96       	adiw	r24, 0x01	; 1
     de8:	90 93 1c 01 	sts	0x011C, r25
     dec:	80 93 1b 01 	sts	0x011B, r24
     df0:	e4 91       	lpm	r30, Z+
     df2:	e0 93 f1 00 	sts	0x00F1, r30
#endif
         data_to_transfer --;
     df6:	31 50       	subi	r19, 0x01	; 1
     df8:	30 93 1a 01 	sts	0x011A, r19
   while((data_to_transfer != 0) && (!Is_usb_receive_out()))
   {
      while(!Is_usb_read_control_enabled());

      nb_byte=0;
      while(data_to_transfer != 0)              // Send data until necessary
     dfc:	30 91 1a 01 	lds	r19, 0x011A
     e00:	33 23       	and	r19, r19
     e02:	49 f7       	brne	.-46     	; 0xdd6 <hid_get_hid_descriptor+0x5c>
#else    // AVRGCC does not support point to PGM space
         Usb_write_byte(pgm_read_byte_near((unsigned int)pbuffer++));
#endif
         data_to_transfer --;
      }
      Usb_send_control_in();
     e04:	80 91 e8 00 	lds	r24, 0x00E8
     e08:	8e 7f       	andi	r24, 0xFE	; 254
     e0a:	80 93 e8 00 	sts	0x00E8, r24
   else
   {
      data_to_transfer = (U8)wLength;           // send only requested number of data
   }

   while((data_to_transfer != 0) && (!Is_usb_receive_out()))
     e0e:	80 91 1a 01 	lds	r24, 0x011A
     e12:	88 23       	and	r24, r24
     e14:	21 f0       	breq	.+8      	; 0xe1e <hid_get_hid_descriptor+0xa4>
     e16:	80 91 e8 00 	lds	r24, 0x00E8
     e1a:	82 ff       	sbrs	r24, 2
     e1c:	d6 cf       	rjmp	.-84     	; 0xdca <hid_get_hid_descriptor+0x50>
   { 
      while(!Is_usb_read_control_enabled());
      Usb_send_control_in();
   }

   while(!Is_usb_receive_out());
     e1e:	80 91 e8 00 	lds	r24, 0x00E8
     e22:	82 ff       	sbrs	r24, 2
     e24:	fc cf       	rjmp	.-8      	; 0xe1e <hid_get_hid_descriptor+0xa4>
   Usb_ack_receive_out();
     e26:	80 91 e8 00 	lds	r24, 0x00E8
     e2a:	8b 7f       	andi	r24, 0xFB	; 251
     e2c:	80 93 e8 00 	sts	0x00E8, r24
     e30:	80 91 e8 00 	lds	r24, 0x00E8
     e34:	8f 77       	andi	r24, 0x7F	; 127
     e36:	80 93 e8 00 	sts	0x00E8, r24
}
     e3a:	0f 90       	pop	r0
     e3c:	0f 90       	pop	r0
     e3e:	0f 90       	pop	r0
     e40:	0f 90       	pop	r0
     e42:	cf 91       	pop	r28
     e44:	df 91       	pop	r29
     e46:	08 95       	ret

00000e48 <usb_user_read_request>:
//!
//! @return TRUE,  when the request is processed
//! @return FALSE, if the request is'nt know (STALL handshake is managed by the main standard request function).
//!
Bool usb_user_read_request(U8 type, U8 request)
{
     e48:	28 2f       	mov	r18, r24
   U8    wValue_msb;
   U8    wValue_lsb;

   // Read wValue
   wValue_lsb = Usb_read_byte();
     e4a:	80 91 f1 00 	lds	r24, 0x00F1
   wValue_msb = Usb_read_byte();
     e4e:	90 91 f1 00 	lds	r25, 0x00F1

   //** Specific request from Class HID
   if( USB_SETUP_GET_STAND_INTERFACE == type )
     e52:	21 38       	cpi	r18, 0x81	; 129
     e54:	69 f4       	brne	.+26     	; 0xe70 <usb_user_read_request+0x28>
   {
      switch( request )
     e56:	66 30       	cpi	r22, 0x06	; 6
     e58:	49 f5       	brne	.+82     	; 0xeac <usb_user_read_request+0x64>
      {
         case SETUP_GET_DESCRIPTOR:
         switch( wValue_msb ) // Descriptor ID
     e5a:	91 32       	cpi	r25, 0x21	; 33
     e5c:	19 f0       	breq	.+6      	; 0xe64 <usb_user_read_request+0x1c>
     e5e:	92 32       	cpi	r25, 0x22	; 34
     e60:	29 f5       	brne	.+74     	; 0xeac <usb_user_read_request+0x64>
     e62:	03 c0       	rjmp	.+6      	; 0xe6a <usb_user_read_request+0x22>
         {
            case DESCRIPTOR_HID:
            hid_get_hid_descriptor();
     e64:	0e 94 bd 06 	call	0xd7a	; 0xd7a <hid_get_hid_descriptor>
     e68:	18 c0       	rjmp	.+48     	; 0xe9a <usb_user_read_request+0x52>
            return TRUE;
            break;
   
            case DESCRIPTOR_REPORT:
            hid_get_report_descriptor();
     e6a:	0e 94 aa 05 	call	0xb54	; 0xb54 <hid_get_report_descriptor>
     e6e:	15 c0       	rjmp	.+42     	; 0xe9a <usb_user_read_request+0x52>
            break;
         }
         break;
      }
   }
   if( USB_SETUP_SET_CLASS_INTER == type )
     e70:	21 32       	cpi	r18, 0x21	; 33
     e72:	a9 f4       	brne	.+42     	; 0xe9e <usb_user_read_request+0x56>
   {
      switch( request )
     e74:	69 30       	cpi	r22, 0x09	; 9
     e76:	19 f0       	breq	.+6      	; 0xe7e <usb_user_read_request+0x36>
     e78:	6a 30       	cpi	r22, 0x0A	; 10
     e7a:	c1 f4       	brne	.+48     	; 0xeac <usb_user_read_request+0x64>
     e7c:	0b c0       	rjmp	.+22     	; 0xe94 <usb_user_read_request+0x4c>
      {
         case SETUP_HID_SET_REPORT:
         // The MSB wValue field specifies the Report Type
         // The LSB wValue field specifies the Report ID
         switch (wValue_msb)
     e7e:	92 30       	cpi	r25, 0x02	; 2
     e80:	19 f0       	breq	.+6      	; 0xe88 <usb_user_read_request+0x40>
     e82:	93 30       	cpi	r25, 0x03	; 3
     e84:	99 f4       	brne	.+38     	; 0xeac <usb_user_read_request+0x64>
     e86:	03 c0       	rjmp	.+6      	; 0xe8e <usb_user_read_request+0x46>
            case REPORT_TYPE_INPUT:
            // TODO
            break;
            
            case REPORT_TYPE_OUTPUT:
            usb_hid_set_report_ouput();
     e88:	0e 94 11 06 	call	0xc22	; 0xc22 <usb_hid_set_report_ouput>
     e8c:	06 c0       	rjmp	.+12     	; 0xe9a <usb_user_read_request+0x52>
            return TRUE;
            break;

            case REPORT_TYPE_FEATURE:
            usb_hid_set_report_feature();
     e8e:	0e 94 88 06 	call	0xd10	; 0xd10 <usb_hid_set_report_feature>
     e92:	03 c0       	rjmp	.+6      	; 0xe9a <usb_user_read_request+0x52>
            break;
         }
         break;

         case SETUP_HID_SET_IDLE:
         usb_hid_set_idle(wValue_lsb,wValue_msb);
     e94:	69 2f       	mov	r22, r25
     e96:	0e 94 2f 06 	call	0xc5e	; 0xc5e <usb_hid_set_idle>
         return TRUE;
     e9a:	81 e0       	ldi	r24, 0x01	; 1
     e9c:	08 95       	ret
         case SETUP_HID_SET_PROTOCOL:
         // TODO
         break;
      }
   }
   if( USB_SETUP_GET_CLASS_INTER == type )
     e9e:	21 3a       	cpi	r18, 0xA1	; 161
     ea0:	29 f4       	brne	.+10     	; 0xeac <usb_user_read_request+0x64>
   {
      switch( request )
     ea2:	62 30       	cpi	r22, 0x02	; 2
     ea4:	29 f4       	brne	.+10     	; 0xeb0 <usb_user_read_request+0x68>
      {
         case SETUP_HID_GET_REPORT:
         // TODO
         break;
         case SETUP_HID_GET_IDLE:
         usb_hid_get_idle(wValue_lsb);
     ea6:	0e 94 4f 06 	call	0xc9e	; 0xc9e <usb_hid_get_idle>
     eaa:	f7 cf       	rjmp	.-18     	; 0xe9a <usb_user_read_request+0x52>
         case SETUP_HID_GET_PROTOCOL:
         // TODO
         break;
      }
   }
   return FALSE;  // No supported request
     eac:	80 e0       	ldi	r24, 0x00	; 0
     eae:	08 95       	ret
     eb0:	80 e0       	ldi	r24, 0x00	; 0
}
     eb2:	08 95       	ret

00000eb4 <set_power_down_mode>:

//! This function makes the AVR core enter power down mode.
//!
void set_power_down_mode(void)
{
   Setup_power_down_mode();
     eb4:	13 be       	out	0x33, r1	; 51
     eb6:	83 b7       	in	r24, 0x33	; 51
     eb8:	85 60       	ori	r24, 0x05	; 5
     eba:	83 bf       	out	0x33, r24	; 51
   Sleep_instruction();
     ebc:	88 95       	sleep
}
     ebe:	08 95       	ret

00000ec0 <set_idle_mode>:

//! This function makes the AVR core enter idle mode.
//!
void set_idle_mode(void)
{
   Setup_idle_mode();
     ec0:	13 be       	out	0x33, r1	; 51
     ec2:	83 b7       	in	r24, 0x33	; 51
     ec4:	81 60       	ori	r24, 0x01	; 1
     ec6:	83 bf       	out	0x33, r24	; 51
   Sleep_instruction();
     ec8:	88 95       	sleep
}
     eca:	08 95       	ret

00000ecc <set_adc_noise_reduction_mode>:

//! This function makes the AVR core enter adc noise reduction mode.
//!
void set_adc_noise_reduction_mode(void)
{
   Setup_adc_noise_reduction_mode();
     ecc:	13 be       	out	0x33, r1	; 51
     ece:	83 b7       	in	r24, 0x33	; 51
     ed0:	83 60       	ori	r24, 0x03	; 3
     ed2:	83 bf       	out	0x33, r24	; 51
   Sleep_instruction();
     ed4:	88 95       	sleep
}
     ed6:	08 95       	ret

00000ed8 <set_power_save_mode>:

//! This function makes the AVR core enter power save mode.
//!
void set_power_save_mode(void)
{
   Setup_power_save_mode();
     ed8:	13 be       	out	0x33, r1	; 51
     eda:	83 b7       	in	r24, 0x33	; 51
     edc:	87 60       	ori	r24, 0x07	; 7
     ede:	83 bf       	out	0x33, r24	; 51
   Sleep_instruction();
     ee0:	88 95       	sleep
}
     ee2:	08 95       	ret

00000ee4 <set_standby_mode>:

//! This function makes the AVR core enter standby mode.
//!
void set_standby_mode(void)
{
   Setup_standby_mode();
     ee4:	13 be       	out	0x33, r1	; 51
     ee6:	83 b7       	in	r24, 0x33	; 51
     ee8:	8d 60       	ori	r24, 0x0D	; 13
     eea:	83 bf       	out	0x33, r24	; 51
   Sleep_instruction();
     eec:	88 95       	sleep
}
     eee:	08 95       	ret

00000ef0 <set_ext_standby_mode>:

//! This function makes the AVR core enter extended standby mode.
//!
void set_ext_standby_mode(void)
{
   Setup_ext_standby_mode();
     ef0:	13 be       	out	0x33, r1	; 51
     ef2:	83 b7       	in	r24, 0x33	; 51
     ef4:	8f 60       	ori	r24, 0x0F	; 15
     ef6:	83 bf       	out	0x33, r24	; 51
   Sleep_instruction();
     ef8:	88 95       	sleep
}
     efa:	08 95       	ret

00000efc <Clock_switch_external>:

//! This function makes the AVR selects the EXTERNAL clock source (CRYSTAL)
//!
void Clock_switch_external(void)
{
  Enable_external_clock();
     efc:	80 91 c5 00 	lds	r24, 0x00C5
     f00:	84 60       	ori	r24, 0x04	; 4
     f02:	80 93 c5 00 	sts	0x00C5, r24
  while (!External_clock_ready());
     f06:	80 91 c7 00 	lds	r24, 0x00C7
     f0a:	80 ff       	sbrs	r24, 0
     f0c:	fc cf       	rjmp	.-8      	; 0xf06 <Clock_switch_external+0xa>
  Select_external_clock();
     f0e:	80 91 c5 00 	lds	r24, 0x00C5
     f12:	81 60       	ori	r24, 0x01	; 1
     f14:	80 93 c5 00 	sts	0x00C5, r24
  Disable_RC_clock();
     f18:	80 91 c5 00 	lds	r24, 0x00C5
     f1c:	87 7f       	andi	r24, 0xF7	; 247
     f1e:	80 93 c5 00 	sts	0x00C5, r24
}
     f22:	08 95       	ret

00000f24 <Clock_switch_internal>:

//! This function makes the AVR selects the INTERNAL clock source (RC)
//!
void Clock_switch_internal(void)
{
  Enable_RC_clock();
     f24:	80 91 c5 00 	lds	r24, 0x00C5
     f28:	88 60       	ori	r24, 0x08	; 8
     f2a:	80 93 c5 00 	sts	0x00C5, r24
  while (!RC_clock_ready());
     f2e:	80 91 c7 00 	lds	r24, 0x00C7
     f32:	81 ff       	sbrs	r24, 1
     f34:	fc cf       	rjmp	.-8      	; 0xf2e <Clock_switch_internal+0xa>
  Select_RC_clock();
     f36:	80 91 c5 00 	lds	r24, 0x00C5
     f3a:	8e 7f       	andi	r24, 0xFE	; 254
     f3c:	80 93 c5 00 	sts	0x00C5, r24
  Disable_external_clock();
     f40:	80 91 c5 00 	lds	r24, 0x00C5
     f44:	8b 7f       	andi	r24, 0xFB	; 251
     f46:	80 93 c5 00 	sts	0x00C5, r24
}
     f4a:	08 95       	ret

00000f4c <hid_task_init>:
//! @brief This function initializes the target board ressources.
//!
void hid_task_init(void)
{
//	 configuration of I/O ports driver
Leds_init();		
     f4c:	8a b1       	in	r24, 0x0a	; 10
     f4e:	83 60       	ori	r24, 0x03	; 3
     f50:	8a b9       	out	0x0a, r24	; 10
			
//	 Set MOSI and SCK output, all others input */
DDRB = 0b00000111;
     f52:	87 e0       	ldi	r24, 0x07	; 7
     f54:	84 b9       	out	0x04, r24	; 4
PRR0 &= ~(1<<PRSPI);
     f56:	e4 e6       	ldi	r30, 0x64	; 100
     f58:	f0 e0       	ldi	r31, 0x00	; 0
     f5a:	80 81       	ld	r24, Z
     f5c:	8b 7f       	andi	r24, 0xFB	; 251
     f5e:	80 83       	st	Z, r24

// spi enable, master, nejnizsi rychlost, sample pri sestupn
// set as master
SPCR |=(1<<MSTR);
     f60:	8c b5       	in	r24, 0x2c	; 44
     f62:	80 61       	ori	r24, 0x10	; 16
     f64:	8c bd       	out	0x2c, r24	; 44

// speed (fastest)
SPCR |=(1<<SPR1);
     f66:	8c b5       	in	r24, 0x2c	; 44
     f68:	82 60       	ori	r24, 0x02	; 2
     f6a:	8c bd       	out	0x2c, r24	; 44
SPCR |=(1<<SPR0);
     f6c:	8c b5       	in	r24, 0x2c	; 44
     f6e:	81 60       	ori	r24, 0x01	; 1
     f70:	8c bd       	out	0x2c, r24	; 44
SPCR &=~(1<<SPI2X);
     f72:	8c b5       	in	r24, 0x2c	; 44
     f74:	8e 7f       	andi	r24, 0xFE	; 254
     f76:	8c bd       	out	0x2c, r24	; 44

// phase
SPCR |=(1<<CPHA);
     f78:	8c b5       	in	r24, 0x2c	; 44
     f7a:	84 60       	ori	r24, 0x04	; 4
     f7c:	8c bd       	out	0x2c, r24	; 44
// spi enable									
SPCR |= (1<<SPE); 
     f7e:	8c b5       	in	r24, 0x2c	; 44
     f80:	80 64       	ori	r24, 0x40	; 64
     f82:	8c bd       	out	0x2c, r24	; 44
			
// start  conditions			
IN_permition    =		in_FORBIDDEN;
     f84:	10 92 11 01 	sts	0x0111, r1
     f88:	10 92 10 01 	sts	0x0110, r1

Led0_off();
     f8c:	58 9a       	sbi	0x0b, 0	; 11
Led1_off();	
     f8e:	59 9a       	sbi	0x0b, 1	; 11
   
}
     f90:	08 95       	ret

00000f92 <sof_action>:
//! the USB Start Of Frame interrupt subroutine is executed (1ms)
//! Usefull to manage time delays
//!
void sof_action()
{
   cpt_sof++;
     f92:	80 91 5e 01 	lds	r24, 0x015E
     f96:	8f 5f       	subi	r24, 0xFF	; 255
     f98:	80 93 5e 01 	sts	0x015E, r24
}
     f9c:	08 95       	ret

00000f9e <set_speed>:



inline void set_speed(U8 received_speed)
{					
	if ( 1 == received_speed )
     f9e:	81 30       	cpi	r24, 0x01	; 1
     fa0:	21 f0       	breq	.+8      	; 0xfaa <set_speed+0xc>
		{
			SPCR &= ~(1<<SPR1);
			SPCR &= ~(1<<SPR0);							
		}
	//0 0 1 fosc/16
	if ( 2 == received_speed )
     fa2:	82 30       	cpi	r24, 0x02	; 2
     fa4:	11 f0       	breq	.+4      	; 0xfaa <set_speed+0xc>
		{
			SPCR &= ~(1<<SPR1);
			SPCR &= ~(1<<SPR0);								
		}
	//0 1 0 fosc/64
	if ( 3 == received_speed )
     fa6:	83 30       	cpi	r24, 0x03	; 3
     fa8:	39 f4       	brne	.+14     	; 0xfb8 <set_speed+0x1a>
		{
			SPCR &= ~(1<<SPR1);
     faa:	8c b5       	in	r24, 0x2c	; 44
     fac:	8d 7f       	andi	r24, 0xFD	; 253
     fae:	8c bd       	out	0x2c, r24	; 44
			SPCR &= ~(1<<SPR0);								
     fb0:	8c b5       	in	r24, 0x2c	; 44
     fb2:	8e 7f       	andi	r24, 0xFE	; 254
     fb4:	8c bd       	out	0x2c, r24	; 44
     fb6:	08 95       	ret
		}
	//0 1 1 fosc/128
	if ( 4 == received_speed )
     fb8:	84 30       	cpi	r24, 0x04	; 4
     fba:	31 f4       	brne	.+12     	; 0xfc8 <set_speed+0x2a>
		{
			SPCR &= ~(1<<SPR1);
     fbc:	8c b5       	in	r24, 0x2c	; 44
     fbe:	8d 7f       	andi	r24, 0xFD	; 253
     fc0:	8c bd       	out	0x2c, r24	; 44
			SPCR &= ~(1<<SPR0);						
     fc2:	8c b5       	in	r24, 0x2c	; 44
     fc4:	8e 7f       	andi	r24, 0xFE	; 254
     fc6:	8c bd       	out	0x2c, r24	; 44
     fc8:	08 95       	ret

00000fca <read_speed>:
	//if ( 0x3 == ( SPCR & 0b00000011 ) )		spi_speed = 4;  
	//if ( 0x2 == ( SPCR & 0b00000010 ) )		spi_speed = 3;
	//if ( 0x1 == ( SPCR & 0b00000001 ) )		spi_speed = 2;
	//if ( 0x0 == ( SPCR & 0b00000000 ) )		spi_speed = 1;
	
	return	(( SPCR & 0b00000011 ) + 1);
     fca:	8c b5       	in	r24, 0x2c	; 44
     fcc:	83 70       	andi	r24, 0x03	; 3
}				
     fce:	8f 5f       	subi	r24, 0xFF	; 255
     fd0:	08 95       	ret

00000fd2 <GetReceivedData>:

inline void GetReceivedData(void)
{
	length = UEBCLX;
     fd2:	80 91 f2 00 	lds	r24, 0x00F2
     fd6:	80 93 1d 01 	sts	0x011D, r24
	
	for (i = 0; i < 64; i++)
     fda:	10 92 0f 01 	sts	0x010F, r1
     fde:	0a c0       	rjmp	.+20     	; 0xff4 <GetReceivedData+0x22>
	{
		data_received_buff[i] = UEDATX;
     fe0:	90 91 f1 00 	lds	r25, 0x00F1
     fe4:	e8 2f       	mov	r30, r24
     fe6:	f0 e0       	ldi	r31, 0x00	; 0
     fe8:	e0 5a       	subi	r30, 0xA0	; 160
     fea:	fe 4f       	sbci	r31, 0xFE	; 254
     fec:	90 83       	st	Z, r25

inline void GetReceivedData(void)
{
	length = UEBCLX;
	
	for (i = 0; i < 64; i++)
     fee:	8f 5f       	subi	r24, 0xFF	; 255
     ff0:	80 93 0f 01 	sts	0x010F, r24
     ff4:	80 91 0f 01 	lds	r24, 0x010F
     ff8:	80 34       	cpi	r24, 0x40	; 64
     ffa:	90 f3       	brcs	.-28     	; 0xfe0 <GetReceivedData+0xe>
	{
		data_received_buff[i] = UEDATX;
	}	
}
     ffc:	08 95       	ret

00000ffe <GetItemType>:

inline enum item_type GetItemType(void)
{
	if ( length > 5 )	return item_long;
     ffe:	21 e0       	ldi	r18, 0x01	; 1
    1000:	30 e0       	ldi	r19, 0x00	; 0
    1002:	80 91 1d 01 	lds	r24, 0x011D
    1006:	86 30       	cpi	r24, 0x06	; 6
    1008:	10 f4       	brcc	.+4      	; 0x100e <GetItemType+0x10>
    100a:	20 e0       	ldi	r18, 0x00	; 0
    100c:	30 e0       	ldi	r19, 0x00	; 0
	else				return item_short;
}	
    100e:	c9 01       	movw	r24, r18
    1010:	08 95       	ret

00001012 <hid_report_out>:


//! @brief Get data report from Host
//!
void hid_report_out(void)
{	 
    1012:	df 93       	push	r29
    1014:	cf 93       	push	r28
    1016:	00 d0       	rcall	.+0      	; 0x1018 <hid_report_out+0x6>
    1018:	00 d0       	rcall	.+0      	; 0x101a <hid_report_out+0x8>
    101a:	cd b7       	in	r28, 0x3d	; 61
    101c:	de b7       	in	r29, 0x3e	; 62
	Usb_select_endpoint(EP_HID_OUT);
    101e:	82 e0       	ldi	r24, 0x02	; 2
    1020:	80 93 e9 00 	sts	0x00E9, r24
	if(Is_usb_receive_out())
    1024:	80 91 e8 00 	lds	r24, 0x00E8
    1028:	82 ff       	sbrs	r24, 2
    102a:	2b c0       	rjmp	.+86     	; 0x1082 <hid_report_out+0x70>
	{			
			// some local variables
			enum item_type	ReceivedItem;
			
			// clear ready bit in flags 
			flags &= ~(1 << 0); 
    102c:	80 91 02 01 	lds	r24, 0x0102
    1030:	8e 7f       	andi	r24, 0xFE	; 254
    1032:	80 93 02 01 	sts	0x0102, r24
			// this function reads USB buffer and aquire received data length
			GetReceivedData();
    1036:	0e 94 e9 07 	call	0xfd2	; 0xfd2 <GetReceivedData>
			
			// gets item type from received data
			ReceivedItem = GetItemType();	
    103a:	0e 94 ff 07 	call	0xffe	; 0xffe <GetItemType>
			
			switch(ReceivedItem)
    103e:	00 97       	sbiw	r24, 0x00	; 0
    1040:	89 f4       	brne	.+34     	; 0x1064 <hid_report_out+0x52>
			{
				case item_short:
				// read item tag
						if      (  0x01  ==  data_received_buff[0] ) 
    1042:	80 91 60 01 	lds	r24, 0x0160
    1046:	81 30       	cpi	r24, 0x01	; 1
    1048:	69 f4       	brne	.+26     	; 0x1064 <hid_report_out+0x52>
							{
								//  flags / speed / version
								if ( 0x05  ==  data_received_buff[1] )
    104a:	80 91 61 01 	lds	r24, 0x0161
    104e:	85 30       	cpi	r24, 0x05	; 5
    1050:	19 f4       	brne	.+6      	; 0x1058 <hid_report_out+0x46>
									{										
									IN_permition = in_set_and_send_short_item;
    1052:	86 e0       	ldi	r24, 0x06	; 6
    1054:	90 e0       	ldi	r25, 0x00	; 0
    1056:	02 c0       	rjmp	.+4      	; 0x105c <hid_report_out+0x4a>
									break;
									}
								else
								{
									IN_permition = in_read_and_send_short_item;
    1058:	84 e0       	ldi	r24, 0x04	; 4
    105a:	90 e0       	ldi	r25, 0x00	; 0
    105c:	90 93 11 01 	sts	0x0111, r25
    1060:	80 93 10 01 	sts	0x0110, r24
			//default: 
			  		//IN_permition = in_ERROR;               
				//break;
		//}
		//
		flags |= (1 << 0); 
    1064:	80 91 02 01 	lds	r24, 0x0102
    1068:	81 60       	ori	r24, 0x01	; 1
    106a:	80 93 02 01 	sts	0x0102, r24
		Usb_ack_receive_out();
    106e:	80 91 e8 00 	lds	r24, 0x00E8
    1072:	8b 7f       	andi	r24, 0xFB	; 251
    1074:	80 93 e8 00 	sts	0x00E8, r24
    1078:	80 91 e8 00 	lds	r24, 0x00E8
    107c:	8f 77       	andi	r24, 0x7F	; 127
    107e:	80 93 e8 00 	sts	0x00E8, r24
	}	 
    
	   //** Check if we received DFU mode command from host
	   if(jump_bootloader)
    1082:	80 91 0a 01 	lds	r24, 0x010A
    1086:	88 23       	and	r24, r24
    1088:	19 f1       	breq	.+70     	; 0x10d0 <hid_report_out+0xbe>
	   {
		  U32 volatile tempo;
		  //Leds_off();
		  Usb_detach();                          // Detach actual generic HID application
    108a:	80 91 e0 00 	lds	r24, 0x00E0
    108e:	81 60       	ori	r24, 0x01	; 1
    1090:	80 93 e0 00 	sts	0x00E0, r24
		  for(tempo=0;tempo<70000;tempo++);      // Wait some time before
    1094:	19 82       	std	Y+1, r1	; 0x01
    1096:	1a 82       	std	Y+2, r1	; 0x02
    1098:	1b 82       	std	Y+3, r1	; 0x03
    109a:	1c 82       	std	Y+4, r1	; 0x04
    109c:	0b c0       	rjmp	.+22     	; 0x10b4 <hid_report_out+0xa2>
    109e:	89 81       	ldd	r24, Y+1	; 0x01
    10a0:	9a 81       	ldd	r25, Y+2	; 0x02
    10a2:	ab 81       	ldd	r26, Y+3	; 0x03
    10a4:	bc 81       	ldd	r27, Y+4	; 0x04
    10a6:	01 96       	adiw	r24, 0x01	; 1
    10a8:	a1 1d       	adc	r26, r1
    10aa:	b1 1d       	adc	r27, r1
    10ac:	89 83       	std	Y+1, r24	; 0x01
    10ae:	9a 83       	std	Y+2, r25	; 0x02
    10b0:	ab 83       	std	Y+3, r26	; 0x03
    10b2:	bc 83       	std	Y+4, r27	; 0x04
    10b4:	89 81       	ldd	r24, Y+1	; 0x01
    10b6:	9a 81       	ldd	r25, Y+2	; 0x02
    10b8:	ab 81       	ldd	r26, Y+3	; 0x03
    10ba:	bc 81       	ldd	r27, Y+4	; 0x04
    10bc:	80 37       	cpi	r24, 0x70	; 112
    10be:	21 e1       	ldi	r18, 0x11	; 17
    10c0:	92 07       	cpc	r25, r18
    10c2:	21 e0       	ldi	r18, 0x01	; 1
    10c4:	a2 07       	cpc	r26, r18
    10c6:	20 e0       	ldi	r18, 0x00	; 0
    10c8:	b2 07       	cpc	r27, r18
    10ca:	48 f3       	brcs	.-46     	; 0x109e <hid_report_out+0x8c>
		  start_boot();                          // Jumping to booltoader
    10cc:	0e 94 25 04 	call	0x84a	; 0x84a <start_boot>
	   }
}
    10d0:	0f 90       	pop	r0
    10d2:	0f 90       	pop	r0
    10d4:	0f 90       	pop	r0
    10d6:	0f 90       	pop	r0
    10d8:	cf 91       	pop	r28
    10da:	df 91       	pop	r29
    10dc:	08 95       	ret

000010de <get_flags>:
	else				return item_short;
}	

inline U8		  get_flags(void)
{
	      if ( 1 == (flags & 0b00000001))		flags    |= ( 1<< 2);// reset
    10de:	80 91 02 01 	lds	r24, 0x0102
    10e2:	80 ff       	sbrs	r24, 0
    10e4:	02 c0       	rjmp	.+4      	; 0x10ea <get_flags+0xc>
    10e6:	84 60       	ori	r24, 0x04	; 4
    10e8:	01 c0       	rjmp	.+2      	; 0x10ec <get_flags+0xe>
		  else									flags    &= ~(1<< 2);
    10ea:	8b 7f       	andi	r24, 0xFB	; 251
    10ec:	80 93 02 01 	sts	0x0102, r24

		  if ( 1 == (flags & 0b00000010))		flags    |= ( 1<< 1);// error
		  else									flags    &= ~(1<< 2);
		  
		  if ( 1 == (flags & 0b00000100))		flags    |= ( 1<< 0); // ready
		  else									flags    &= ~(1<< 2);
    10f0:	80 91 02 01 	lds	r24, 0x0102
    10f4:	8b 7f       	andi	r24, 0xFB	; 251
    10f6:	80 93 02 01 	sts	0x0102, r24
							//PORTB |= (1<< PORTB0);
							//reset = '1';	
						//}
	      return flags;
		  // flags    0 / 0 / 0 / 0 / 0 / reset / error / ready
}
    10fa:	08 95       	ret

000010fc <set_flags>:
inline void	  set_flags(U8 flags_temp)
{
		flags = flags_temp;
    10fc:	80 93 02 01 	sts	0x0102, r24
}
    1100:	08 95       	ret

00001102 <get_version>:
inline U8		  get_version(void)
{
		  return VERSION;	
}
    1102:	80 e1       	ldi	r24, 0x10	; 16
    1104:	08 95       	ret

00001106 <send_short_item>:

inline void    send_short_item(U8 tag, U8 size, U8 speed, U8 flag_temp)
{
		  UEDATX = tag;
    1106:	80 93 f1 00 	sts	0x00F1, r24
		  UEDATX = size;
    110a:	60 93 f1 00 	sts	0x00F1, r22
		  UEDATX = speed;
    110e:	40 93 f1 00 	sts	0x00F1, r20
		  UEDATX = flag_temp;
    1112:	20 93 f1 00 	sts	0x00F1, r18
		  UEDATX = VERSION;
    1116:	80 e1       	ldi	r24, 0x10	; 16
    1118:	80 93 f1 00 	sts	0x00F1, r24
		  // add dummy bytes
		  for ( i = 5; i <= 63; i++)
    111c:	85 e0       	ldi	r24, 0x05	; 5
    111e:	03 c0       	rjmp	.+6      	; 0x1126 <send_short_item+0x20>
		  {
			UEDATX = 0x00;  
    1120:	10 92 f1 00 	sts	0x00F1, r1
		  UEDATX = size;
		  UEDATX = speed;
		  UEDATX = flag_temp;
		  UEDATX = VERSION;
		  // add dummy bytes
		  for ( i = 5; i <= 63; i++)
    1124:	8f 5f       	subi	r24, 0xFF	; 255
    1126:	80 93 0f 01 	sts	0x010F, r24
    112a:	80 91 0f 01 	lds	r24, 0x010F
    112e:	80 34       	cpi	r24, 0x40	; 64
    1130:	b8 f3       	brcs	.-18     	; 0x1120 <send_short_item+0x1a>
		  {
			UEDATX = 0x00;  
		  }		  		  	 	  	
}
    1132:	08 95       	ret

00001134 <hid_report_in>:

//! @brief Send data report to Host
//!
void hid_report_in(void)
{
   Usb_select_endpoint(EP_HID_IN);
    1134:	81 e0       	ldi	r24, 0x01	; 1
    1136:	80 93 e9 00 	sts	0x00E9, r24
   if(!Is_usb_write_enabled())// Not ready to send report
    113a:	80 91 e8 00 	lds	r24, 0x00E8
    113e:	85 ff       	sbrs	r24, 5
    1140:	2b c0       	rjmp	.+86     	; 0x1198 <hid_report_in+0x64>
		//if ( 750 == cnt)
		//{
			//Led0_toggle();
			//cnt = 0;	
		//}	
		switch( IN_permition )
    1142:	80 91 10 01 	lds	r24, 0x0110
    1146:	90 91 11 01 	lds	r25, 0x0111
    114a:	84 30       	cpi	r24, 0x04	; 4
    114c:	91 05       	cpc	r25, r1
    114e:	59 f0       	breq	.+22     	; 0x1166 <hid_report_in+0x32>
    1150:	86 30       	cpi	r24, 0x06	; 6
    1152:	91 05       	cpc	r25, r1
    1154:	b9 f4       	brne	.+46     	; 0x1184 <hid_report_in+0x50>
			{
				case	 in_set_and_send_short_item:
								
							//data_received_buff[3]   - speed   data_received_buff[4] - flags 
							//read version and flags
								set_speed(data_received_buff[3]);
    1156:	80 91 63 01 	lds	r24, 0x0163
    115a:	0e 94 cf 07 	call	0xf9e	; 0xf9e <set_speed>
	      return flags;
		  // flags    0 / 0 / 0 / 0 / 0 / reset / error / ready
}
inline void	  set_flags(U8 flags_temp)
{
		flags = flags_temp;
    115e:	80 91 64 01 	lds	r24, 0x0164
    1162:	80 93 02 01 	sts	0x0102, r24
					break;
					
				case	in_read_and_send_short_item:
				
							// send actual values
								send_short_item( 0x1, 0x5, read_speed(), flags );
    1166:	0e 94 e5 07 	call	0xfca	; 0xfca <read_speed>
    116a:	48 2f       	mov	r20, r24
    116c:	81 e0       	ldi	r24, 0x01	; 1
    116e:	65 e0       	ldi	r22, 0x05	; 5
    1170:	20 91 02 01 	lds	r18, 0x0102
    1174:	0e 94 83 08 	call	0x1106	; 0x1106 <send_short_item>
								IN_permition = in_Completed;
    1178:	85 e0       	ldi	r24, 0x05	; 5
    117a:	90 e0       	ldi	r25, 0x00	; 0
    117c:	90 93 11 01 	sts	0x0111, r25
    1180:	80 93 10 01 	sts	0x0110, r24
					break;
			}		
	// IN data handling			
		Usb_ack_in_ready();				              
    1184:	80 91 e8 00 	lds	r24, 0x00E8
    1188:	8e 7f       	andi	r24, 0xFE	; 254
    118a:	80 93 e8 00 	sts	0x00E8, r24
    118e:	80 91 e8 00 	lds	r24, 0x00E8
    1192:	8f 77       	andi	r24, 0x7F	; 127
    1194:	80 93 e8 00 	sts	0x00E8, r24
    1198:	08 95       	ret

0000119a <hid_task>:
//! @brief Entry point of the HID generic communication task
//! This function manages IN/OUT repport management.
//!
void hid_task(void)
{
   if(!Is_device_enumerated())          // Check USB HID is enumerated
    119a:	80 91 19 01 	lds	r24, 0x0119
    119e:	88 23       	and	r24, r24
    11a0:	21 f0       	breq	.+8      	; 0x11aa <hid_task+0x10>
      return;
	
   hid_report_out();
    11a2:	0e 94 09 08 	call	0x1012	; 0x1012 <hid_report_out>
   hid_report_in();
    11a6:	0e 94 9a 08 	call	0x1134	; 0x1134 <hid_report_in>
    11aa:	08 95       	ret

000011ac <flash_read_sig>:
//! @param  add   Address of device ID to read.
//!
//! @return byte  Read value (R24)
//!
flash_read_sig:
   RCALL    WAIT_SPMEN                       // Wait for SPMEN flag cleared
    11ac:	0f d0       	rcall	.+30     	; 0x11cc <WAIT_SPMEN>
   MOV      R31,R23
    11ae:	f7 2f       	mov	r31, r23
   MOV      R30,R22                          // move adress to z pointer (R31=ZH R30=ZL)
    11b0:	e6 2f       	mov	r30, r22
   LDI      R20, ((1<<SPMEN) | (1<<SIGRD))  
    11b2:	41 e2       	ldi	r20, 0x21	; 33
   OUT      _ASM_SFR_IO_(SPMCSR), R20        // argument 2 decides function (r18)
    11b4:	47 bf       	out	0x37, r20	; 55
   LPM                                       // Store program memory
    11b6:	c8 95       	lpm
   MOV      R24, R0                          // Store return value
    11b8:	80 2d       	mov	r24, r0
   RJMP     WAIT_SPMEN                       // Wait for SPMEN flag cleared
    11ba:	08 c0       	rjmp	.+16     	; 0x11cc <WAIT_SPMEN>

000011bc <flash_read_fuse>:
//! @param  add   Address of fuse to read.
//! 
//! @return byte  Read value (R24)
//!
flash_read_fuse:
   RCALL    WAIT_SPMEN                       // Wait for SPMEN flag cleared
    11bc:	07 d0       	rcall	.+14     	; 0x11cc <WAIT_SPMEN>
   MOV      R31,R23
    11be:	f7 2f       	mov	r31, r23
   MOV      R30,R22                          // move adress to z pointer (R31=ZH R30=ZL)
    11c0:	e6 2f       	mov	r30, r22
   LDI      R20,((1<<SPMEN) | (1<<BLBSET))  
    11c2:	49 e0       	ldi	r20, 0x09	; 9
   OUT      _ASM_SFR_IO_(SPMCSR), R20        // argument 2 decides function (r18)
    11c4:	47 bf       	out	0x37, r20	; 55
   LPM                                       // Store program memory
    11c6:	c8 95       	lpm
   MOV      R24, R0                          // Store return value
    11c8:	80 2d       	mov	r24, r0
   RJMP     WAIT_SPMEN                       // Wait for SPMEN flag cleared
    11ca:	00 c0       	rjmp	.+0      	; 0x11cc <WAIT_SPMEN>

000011cc <WAIT_SPMEN>:

//! @brief Performs an active wait on SPME flag
//!
WAIT_SPMEN:
   MOV      R0, R18
    11cc:	02 2e       	mov	r0, r18
   IN       R18,_ASM_SFR_IO_(SPMCSR)         // get SPMCR into r18
    11ce:	27 b7       	in	r18, 0x37	; 55
   SBRC     R18,SPMEN
    11d0:	20 fd       	sbrc	r18, 0
   RJMP     WAIT_SPMEN                       // Wait for SPMEN flag cleared
    11d2:	fc cf       	rjmp	.-8      	; 0x11cc <WAIT_SPMEN>
   MOV      R18, R0
    11d4:	20 2d       	mov	r18, r0
   RET
    11d6:	08 95       	ret

000011d8 <_exit>:
    11d8:	f8 94       	cli

000011da <__stop_program>:
    11da:	ff cf       	rjmp	.-2      	; 0x11da <__stop_program>
